---
triple:          'arm64-apple-darwin'
binary-path:     test
relocations:
  - { offset: 0x6F21, size: 0x8, addend: 0x0, symName: __ZNSt3__124__put_character_sequenceB8ne180100IcNS_11char_traitsIcEEEERNS_13basic_ostreamIT_T0_EES7_PKS4_m, symObjAddr: 0x3C6C, symBinAddr: 0x100005E1C, symSize: 0x1EC }
  - { offset: 0x7D91, size: 0x8, addend: 0x0, symName: __ZNSt3__16copy_nB8ne180100IPKcmPcLi0EEET1_T_T0_S4_, symObjAddr: 0x4E04, symBinAddr: 0x100006FB4, symSize: 0x44 }
  - { offset: 0x864D, size: 0x8, addend: 0x0, symName: __ZNSt3__14endlB8ne180100IcNS_11char_traitsIcEEEERNS_13basic_ostreamIT_T0_EES7_, symObjAddr: 0x510, symBinAddr: 0x1000026C0, symSize: 0x58 }
  - { offset: 0x868D, size: 0x8, addend: 0x0, symName: __ZNSt3__1lsB8ne180100INS_11char_traitsIcEEEERNS_13basic_ostreamIcT_EES6_PKc, symObjAddr: 0x5AC, symBinAddr: 0x10000275C, symSize: 0x48 }
  - { offset: 0x86D3, size: 0x8, addend: 0x0, symName: __ZNSt3__1lsB8ne180100INS_11char_traitsIcEEEERNS_13basic_ostreamIcT_EES6_c, symObjAddr: 0x5F4, symBinAddr: 0x1000027A4, symSize: 0x34 }
  - { offset: 0x8719, size: 0x8, addend: 0x0, symName: __ZNSt3__1plB8ne180100IcNS_11char_traitsIcEENS_9allocatorIcEEEENS_12basic_stringIT_T0_T1_EERKS9_S6_, symObjAddr: 0x628, symBinAddr: 0x1000027D8, symSize: 0x110 }
  - { offset: 0x87AB, size: 0x8, addend: 0x0, symName: __ZNSt3__118__constexpr_strlenB8ne180100EPKc, symObjAddr: 0x8E8, symBinAddr: 0x100002A98, symSize: 0x24 }
  - { offset: 0x87D7, size: 0x8, addend: 0x0, symName: __ZNSt3__112__to_addressB8ne180100INS_3mapINS_12basic_stringIcNS_11char_traitsIcEENS_9allocatorIcEEEEiNS_4lessIS7_EENS5_INS_4pairIKS7_iEEEEEEEEPT_SG_, symObjAddr: 0x1394, symBinAddr: 0x100003544, symSize: 0x14 }
  - { offset: 0x883F, size: 0x8, addend: 0x0, symName: __ZNSt3__13maxB8ne180100ImEERKT_S3_S3_, symObjAddr: 0x193C, symBinAddr: 0x100003AEC, symSize: 0x2C }
  - { offset: 0x8882, size: 0x8, addend: 0x0, symName: __ZNSt3__13minB8ne180100ImEERKT_S3_S3_, symObjAddr: 0x1968, symBinAddr: 0x100003B18, symSize: 0x2C }
  - { offset: 0x8AC6, size: 0x8, addend: 0x0, symName: __ZNSt3__13minB8ne180100ImNS_6__lessIvvEEEERKT_S5_S5_T0_, symObjAddr: 0x19F4, symBinAddr: 0x100003BA4, symSize: 0x54 }
  - { offset: 0x8B65, size: 0x8, addend: 0x0, symName: __ZNSt3__120__throw_length_errorB8ne180100EPKc, symObjAddr: 0x1AD4, symBinAddr: 0x100003C84, symSize: 0x64 }
  - { offset: 0x8B8D, size: 0x8, addend: 0x0, symName: __ZNSt3__13maxB8ne180100ImNS_6__lessIvvEEEERKT_S5_S5_T0_, symObjAddr: 0x1C10, symBinAddr: 0x100003DC0, symSize: 0x54 }
  - { offset: 0x8BE7, size: 0x8, addend: 0x0, symName: __ZNSt3__119__allocate_at_leastB8ne180100INS_9allocatorINS_3mapINS_12basic_stringIcNS_11char_traitsIcEENS1_IcEEEEiNS_4lessIS7_EENS1_INS_4pairIKS7_iEEEEEEEEEENS_19__allocation_resultINS_16allocator_traitsIT_E7pointerEEERSI_m, symObjAddr: 0x1D80, symBinAddr: 0x100003F30, symSize: 0x40 }
  - { offset: 0x8C2A, size: 0x8, addend: 0x0, symName: __ZNSt3__117__libcpp_allocateB8ne180100Emm, symObjAddr: 0x1F08, symBinAddr: 0x1000040B8, symSize: 0x28 }
  - { offset: 0x8C67, size: 0x8, addend: 0x0, symName: __ZNSt3__121__libcpp_operator_newB8ne180100IJmEEEPvDpT_, symObjAddr: 0x1F30, symBinAddr: 0x1000040E0, symSize: 0x24 }
  - { offset: 0x8CA0, size: 0x8, addend: 0x0, symName: __ZNSt3__142__uninitialized_allocator_move_if_noexceptB8ne180100INS_9allocatorINS_3mapINS_12basic_stringIcNS_11char_traitsIcEENS1_IcEEEEiNS_4lessIS7_EENS1_INS_4pairIKS7_iEEEEEEEENS_16reverse_iteratorIPSE_EESI_SI_EET2_RT_T0_T1_SJ_, symObjAddr: 0x209C, symBinAddr: 0x10000424C, symSize: 0x12C }
  - { offset: 0x8D40, size: 0x8, addend: 0x0, symName: __ZNSt3__14swapB8ne180100IPNS_3mapINS_12basic_stringIcNS_11char_traitsIcEENS_9allocatorIcEEEEiNS_4lessIS7_EENS5_INS_4pairIKS7_iEEEEEEEENS_9enable_ifIXaasr21is_move_constructibleIT_EE5valuesr18is_move_assignableISH_EE5valueEvE4typeERSH_SK_, symObjAddr: 0x2214, symBinAddr: 0x1000043C4, symSize: 0x3C }
  - { offset: 0x8D91, size: 0x8, addend: 0x0, symName: __ZNSt3__122__make_exception_guardB8ne180100INS_29_AllocatorDestroyRangeReverseINS_9allocatorINS_3mapINS_12basic_stringIcNS_11char_traitsIcEENS2_IcEEEEiNS_4lessIS8_EENS2_INS_4pairIKS8_iEEEEEEEENS_16reverse_iteratorIPSF_EEEEEENS_28__exception_guard_exceptionsIT_EESM_, symObjAddr: 0x2264, symBinAddr: 0x100004414, symSize: 0x4C }
  - { offset: 0x8DC7, size: 0x8, addend: 0x0, symName: __ZNSt3__1neB8ne180100IPNS_3mapINS_12basic_stringIcNS_11char_traitsIcEENS_9allocatorIcEEEEiNS_4lessIS7_EENS5_INS_4pairIKS7_iEEEEEESF_EEbRKNS_16reverse_iteratorIT_EERKNSG_IT0_EE, symObjAddr: 0x22F4, symBinAddr: 0x1000044A4, symSize: 0x48 }
  - { offset: 0x8E13, size: 0x8, addend: 0x0, symName: __ZNSt3__112__to_addressB8ne180100INS_16reverse_iteratorIPNS_3mapINS_12basic_stringIcNS_11char_traitsIcEENS_9allocatorIcEEEEiNS_4lessIS8_EENS6_INS_4pairIKS8_iEEEEEEEEvEEu7__decayIDTclsr19__to_address_helperIT_EE6__callclsr3stdE7declvalIRKSI_EEEEESK_, symObjAddr: 0x2370, symBinAddr: 0x100004520, symSize: 0x24 }
  - { offset: 0x8E72, size: 0x8, addend: 0x0, symName: __ZNSt3__119__allocator_destroyB8ne180100INS_9allocatorINS_3mapINS_12basic_stringIcNS_11char_traitsIcEENS1_IcEEEEiNS_4lessIS7_EENS1_INS_4pairIKS7_iEEEEEEEENS_16reverse_iteratorINSG_IPSE_EEEESJ_EEvRT_T0_T1_, symObjAddr: 0x2848, symBinAddr: 0x1000049F8, symSize: 0x70 }
  - { offset: 0x8ED7, size: 0x8, addend: 0x0, symName: __ZNSt3__1neB8ne180100INS_16reverse_iteratorIPNS_3mapINS_12basic_stringIcNS_11char_traitsIcEENS_9allocatorIcEEEEiNS_4lessIS8_EENS6_INS_4pairIKS8_iEEEEEEEESH_EEbRKNS1_IT_EERKNS1_IT0_EE, symObjAddr: 0x28F4, symBinAddr: 0x100004AA4, symSize: 0x60 }
  - { offset: 0x8F23, size: 0x8, addend: 0x0, symName: __ZNSt3__112__to_addressB8ne180100INS_16reverse_iteratorINS1_IPNS_3mapINS_12basic_stringIcNS_11char_traitsIcEENS_9allocatorIcEEEEiNS_4lessIS8_EENS6_INS_4pairIKS8_iEEEEEEEEEEvEEu7__decayIDTclsr19__to_address_helperIT_EE6__callclsr3stdE7declvalIRKSJ_EEEEESL_, symObjAddr: 0x2980, symBinAddr: 0x100004B30, symSize: 0x24 }
  - { offset: 0x8FE6, size: 0x8, addend: 0x0, symName: __ZNSt3__112__destroy_atB8ne180100INS_4pairIKNS_12basic_stringIcNS_11char_traitsIcEENS_9allocatorIcEEEEiEELi0EEEvPT_, symObjAddr: 0x2C90, symBinAddr: 0x100004E40, symSize: 0x24 }
  - { offset: 0x901D, size: 0x8, addend: 0x0, symName: __ZNSt3__119__libcpp_deallocateB8ne180100EPvmm, symObjAddr: 0x2D60, symBinAddr: 0x100004F10, symSize: 0x30 }
  - { offset: 0x9065, size: 0x8, addend: 0x0, symName: __ZNSt3__127__do_deallocate_handle_sizeB8ne180100IJEEEvPvmDpT_, symObjAddr: 0x2D90, symBinAddr: 0x100004F40, symSize: 0x28 }
  - { offset: 0x90A3, size: 0x8, addend: 0x0, symName: __ZNSt3__124__libcpp_operator_deleteB8ne180100IJPvEEEvDpT_, symObjAddr: 0x2DB8, symBinAddr: 0x100004F68, symSize: 0x24 }
  - { offset: 0x9101, size: 0x8, addend: 0x0, symName: __ZNSt3__19use_facetB8ne180100INS_5ctypeIcEEEERKT_RKNS_6localeE, symObjAddr: 0x3448, symBinAddr: 0x1000055F8, symSize: 0x2C }
  - { offset: 0x95CE, size: 0x8, addend: 0x0, symName: __ZNSt3__113__countl_zeroB8ne180100IjEEiT_, symObjAddr: 0x36C4, symBinAddr: 0x100005874, symSize: 0x54 }
  - { offset: 0x9669, size: 0x8, addend: 0x0, symName: __ZNSt3__112__libcpp_clzB8ne180100Ej, symObjAddr: 0x3C4C, symBinAddr: 0x100005DFC, symSize: 0x18 }
  - { offset: 0x9695, size: 0x8, addend: 0x0, symName: __ZNSt3__116__pad_and_outputB8ne180100IcNS_11char_traitsIcEEEENS_19ostreambuf_iteratorIT_T0_EES6_PKS4_S8_S8_RNS_8ios_baseES4_, symObjAddr: 0x3E74, symBinAddr: 0x100006024, symSize: 0x240 }
  - { offset: 0x9764, size: 0x8, addend: 0x0, symName: __ZNSt3__112__to_addressB8ne180100IKcEEPT_S3_, symObjAddr: 0x42E4, symBinAddr: 0x100006494, symSize: 0x14 }
  - { offset: 0x97CC, size: 0x8, addend: 0x0, symName: __ZNSt3__112__to_addressB8ne180100IcEEPT_S2_, symObjAddr: 0x45D8, symBinAddr: 0x100006788, symSize: 0x14 }
  - { offset: 0x9A36, size: 0x8, addend: 0x0, symName: __ZNSt3__14copyB8ne180100IPKcPcEET0_T_S5_S4_, symObjAddr: 0x4E48, symBinAddr: 0x100006FF8, symSize: 0x40 }
  - { offset: 0x9A90, size: 0x8, addend: 0x0, symName: __ZNSt3__16__copyB8ne180100INS_17_ClassicAlgPolicyEPKcS3_PcEENS_4pairIT0_T2_EES6_T1_S7_, symObjAddr: 0x4E88, symBinAddr: 0x100007038, symSize: 0x44 }
  - { offset: 0x9AFC, size: 0x8, addend: 0x0, symName: __ZNSt3__123__dispatch_copy_or_moveB8ne180100INS_17_ClassicAlgPolicyENS_11__copy_loopIS1_EENS_14__copy_trivialEPKcS6_PcEENS_4pairIT2_T4_EES9_T3_SA_, symObjAddr: 0x4ECC, symBinAddr: 0x10000707C, symSize: 0x44 }
  - { offset: 0x9B7A, size: 0x8, addend: 0x0, symName: __ZNSt3__121__unwrap_and_dispatchB8ne180100INS_10__overloadINS_11__copy_loopINS_17_ClassicAlgPolicyEEENS_14__copy_trivialEEEPKcS8_PcLi0EEENS_4pairIT0_T2_EESB_T1_SC_, symObjAddr: 0x4F10, symBinAddr: 0x1000070C0, symSize: 0xB4 }
  - { offset: 0x9C08, size: 0x8, addend: 0x0, symName: __ZNSt3__114__unwrap_rangeB8ne180100IPKcS2_EENS_4pairIT0_S4_EET_S6_, symObjAddr: 0x4FC4, symBinAddr: 0x100007174, symSize: 0x60 }
  - { offset: 0x9D9D, size: 0x8, addend: 0x0, symName: __ZNSt3__113__unwrap_iterB8ne180100IPcNS_18__unwrap_iter_implIS1_Lb1EEELi0EEEDTclsrT0_8__unwrapclsr3stdE7declvalIT_EEEES5_, symObjAddr: 0x506C, symBinAddr: 0x10000721C, symSize: 0x24 }
  - { offset: 0x9DE1, size: 0x8, addend: 0x0, symName: __ZNSt3__19make_pairB8ne180100IPKcPcEENS_4pairINS_18__unwrap_ref_decayIT_E4typeENS5_IT0_E4typeEEEOS6_OS9_, symObjAddr: 0x5090, symBinAddr: 0x100007240, symSize: 0x38 }
  - { offset: 0x9E30, size: 0x8, addend: 0x0, symName: __ZNSt3__114__rewrap_rangeB8ne180100IPKcS2_EET_S3_T0_, symObjAddr: 0x50C8, symBinAddr: 0x100007278, symSize: 0x2C }
  - { offset: 0x9E7C, size: 0x8, addend: 0x0, symName: __ZNSt3__113__rewrap_iterB8ne180100IPcS1_NS_18__unwrap_iter_implIS1_Lb1EEEEET_S4_T0_, symObjAddr: 0x50F4, symBinAddr: 0x1000072A4, symSize: 0x3C }
  - { offset: 0x9ED1, size: 0x8, addend: 0x0, symName: __ZNSt3__19make_pairB8ne180100IPKcS2_EENS_4pairINS_18__unwrap_ref_decayIT_E4typeENS4_IT0_E4typeEEEOS5_OS8_, symObjAddr: 0x5130, symBinAddr: 0x1000072E0, symSize: 0x38 }
  - { offset: 0x9F20, size: 0x8, addend: 0x0, symName: __ZNSt3__113__unwrap_iterB8ne180100IPKcNS_18__unwrap_iter_implIS2_Lb1EEELi0EEEDTclsrT0_8__unwrapclsr3stdE7declvalIT_EEEES6_, symObjAddr: 0x5168, symBinAddr: 0x100007318, symSize: 0x24 }
  - { offset: 0xA08B, size: 0x8, addend: 0x0, symName: __ZNSt3__119__copy_trivial_implB8ne180100IKccEENS_4pairIPT_PT0_EES4_S4_S6_, symObjAddr: 0x5220, symBinAddr: 0x1000073D0, symSize: 0x78 }
  - { offset: 0xA0F3, size: 0x8, addend: 0x0, symName: __ZNSt3__119__constexpr_memmoveB8ne180100IcKcLi0EEEPT_S3_PT0_NS_15__element_countE, symObjAddr: 0x5298, symBinAddr: 0x100007448, symSize: 0x64 }
  - { offset: 0xA161, size: 0x8, addend: 0x0, symName: __ZNSt3__19make_pairB8ne180100IRPKcPcEENS_4pairINS_18__unwrap_ref_decayIT_E4typeENS6_IT0_E4typeEEEOS7_OSA_, symObjAddr: 0x52FC, symBinAddr: 0x1000074AC, symSize: 0x38 }
  - { offset: 0xA203, size: 0x8, addend: 0x0, symName: __ZNSt3__113__rewrap_iterB8ne180100IPKcS2_NS_18__unwrap_iter_implIS2_Lb1EEEEET_S5_T0_, symObjAddr: 0x5438, symBinAddr: 0x1000075E8, symSize: 0x3C }
  - { offset: 0xA258, size: 0x8, addend: 0x0, symName: __ZNSt3__16fill_nB8ne180100IPcmcEET_S2_T0_RKT1_, symObjAddr: 0x5504, symBinAddr: 0x1000076B4, symSize: 0x44 }
  - { offset: 0xA2BB, size: 0x8, addend: 0x0, symName: __ZNSt3__18__fill_nB8ne180100IPcmcEET_S2_T0_RKT1_, symObjAddr: 0x5548, symBinAddr: 0x1000076F8, symSize: 0x64 }
  - { offset: 0xA31E, size: 0x8, addend: 0x0, symName: __ZNSt3__121__convert_to_integralB8ne180100Em, symObjAddr: 0x55AC, symBinAddr: 0x10000775C, symSize: 0x14 }
  - { offset: 0xB214, size: 0x8, addend: 0x0, symName: __ZSt28__throw_bad_array_new_lengthB8ne180100v, symObjAddr: 0x1ED4, symBinAddr: 0x100004084, symSize: 0x34 }
  - { offset: 0xB9A3, size: 0x8, addend: 0x0, symName: __ZNSt3__16vectorINS_3mapINS_12basic_stringIcNS_11char_traitsIcEENS_9allocatorIcEEEEiNS_4lessIS7_EENS5_INS_4pairIKS7_iEEEEEENS5_ISE_EEE26__swap_out_circular_bufferERNS_14__split_bufferISE_RSF_EE, symObjAddr: 0x11B8, symBinAddr: 0x100003368, symSize: 0x110 }
  - { offset: 0xBA72, size: 0x8, addend: 0x0, symName: __ZNSt3__124uniform_int_distributionIiEclINS_26linear_congruential_engineIjLj48271ELj0ELj2147483647EEEEEiRT_RKNS1_10param_typeE, symObjAddr: 0x34AC, symBinAddr: 0x10000565C, symSize: 0x188 }
  - { offset: 0xBC46, size: 0x8, addend: 0x0, symName: _main, symObjAddr: 0x0, symBinAddr: 0x1000021B0, symSize: 0x3E8 }
  - { offset: 0xBD21, size: 0x8, addend: 0x0, symName: __ZNSt3__126linear_congruential_engineIjLj48271ELj0ELj2147483647EEC1B8ne180100Ev, symObjAddr: 0x3E8, symBinAddr: 0x100002598, symSize: 0x30 }
  - { offset: 0xBD49, size: 0x8, addend: 0x0, symName: __ZNSt3__124uniform_int_distributionIiEC1B8ne180100Eii, symObjAddr: 0x418, symBinAddr: 0x1000025C8, symSize: 0x3C }
  - { offset: 0xBE9F, size: 0x8, addend: 0x0, symName: __ZN9HashTableINSt3__112basic_stringIcNS0_11char_traitsIcEENS0_9allocatorIcEEEEiEC1Ev, symObjAddr: 0x454, symBinAddr: 0x100002604, symSize: 0x2C }
  - { offset: 0xBEC9, size: 0x8, addend: 0x0, symName: __ZN9HashTableINSt3__112basic_stringIcNS0_11char_traitsIcEENS0_9allocatorIcEEEEiE6insertES6_i, symObjAddr: 0x480, symBinAddr: 0x100002630, symSize: 0x18 }
  - { offset: 0xBF10, size: 0x8, addend: 0x0, symName: __ZNSt3__112basic_stringIcNS_11char_traitsIcEENS_9allocatorIcEEEC1B8ne180100ILi0EEEPKc, symObjAddr: 0x498, symBinAddr: 0x100002648, symSize: 0x34 }
  - { offset: 0xBF4E, size: 0x8, addend: 0x0, symName: __ZN9HashTableINSt3__112basic_stringIcNS0_11char_traitsIcEENS0_9allocatorIcEEEEiE4findES6_, symObjAddr: 0x4CC, symBinAddr: 0x10000267C, symSize: 0x18 }
  - { offset: 0xBF83, size: 0x8, addend: 0x0, symName: __ZNSt3__113basic_ostreamIcNS_11char_traitsIcEEElsB8ne180100EPFRS3_S4_E, symObjAddr: 0x4E4, symBinAddr: 0x100002694, symSize: 0x2C }
  - { offset: 0xBFB6, size: 0x8, addend: 0x0, symName: __ZN9HashTableINSt3__112basic_stringIcNS0_11char_traitsIcEENS0_9allocatorIcEEEEiE6removeES6_, symObjAddr: 0x568, symBinAddr: 0x100002718, symSize: 0x14 }
  - { offset: 0xBFEB, size: 0x8, addend: 0x0, symName: __ZNSt3__124uniform_int_distributionIiEclB8ne180100INS_26linear_congruential_engineIjLj48271ELj0ELj2147483647EEEEEiRT_, symObjAddr: 0x57C, symBinAddr: 0x10000272C, symSize: 0x30 }
  - { offset: 0xC027, size: 0x8, addend: 0x0, symName: __ZN9HashTableINSt3__112basic_stringIcNS0_11char_traitsIcEENS0_9allocatorIcEEEEiED1Ev, symObjAddr: 0x738, symBinAddr: 0x1000028E8, symSize: 0x2C }
  - { offset: 0xC050, size: 0x8, addend: 0x0, symName: __ZNSt3__112basic_stringIcNS_11char_traitsIcEENS_9allocatorIcEEEC2B8ne180100ILi0EEEPKc, symObjAddr: 0x764, symBinAddr: 0x100002914, symSize: 0x58 }
  - { offset: 0xC092, size: 0x8, addend: 0x0, symName: __ZNSt3__117__compressed_pairINS_12basic_stringIcNS_11char_traitsIcEENS_9allocatorIcEEE5__repES5_EC1B8ne180100INS_18__default_init_tagESA_EEOT_OT0_, symObjAddr: 0x7BC, symBinAddr: 0x10000296C, symSize: 0x3C }
  - { offset: 0xC0E9, size: 0x8, addend: 0x0, symName: __ZNSt3__111char_traitsIcE6lengthB8ne180100EPKc, symObjAddr: 0x7F8, symBinAddr: 0x1000029A8, symSize: 0x34 }
  - { offset: 0xC10B, size: 0x8, addend: 0x0, symName: __ZNSt3__117__compressed_pairINS_12basic_stringIcNS_11char_traitsIcEENS_9allocatorIcEEE5__repES5_EC2B8ne180100INS_18__default_init_tagESA_EEOT_OT0_, symObjAddr: 0x82C, symBinAddr: 0x1000029DC, symSize: 0x3C }
  - { offset: 0xC162, size: 0x8, addend: 0x0, symName: __ZNSt3__122__compressed_pair_elemINS_12basic_stringIcNS_11char_traitsIcEENS_9allocatorIcEEE5__repELi0ELb0EEC2B8ne180100ENS_18__default_init_tagE, symObjAddr: 0x868, symBinAddr: 0x100002A18, symSize: 0x14 }
  - { offset: 0xC195, size: 0x8, addend: 0x0, symName: __ZNSt3__122__compressed_pair_elemINS_9allocatorIcEELi1ELb1EEC2B8ne180100ENS_18__default_init_tagE, symObjAddr: 0x87C, symBinAddr: 0x100002A2C, symSize: 0x2C }
  - { offset: 0xC1C8, size: 0x8, addend: 0x0, symName: __ZNSt3__19allocatorIcEC2B8ne180100Ev, symObjAddr: 0x8A8, symBinAddr: 0x100002A58, symSize: 0x2C }
  - { offset: 0xC1F1, size: 0x8, addend: 0x0, symName: __ZNSt3__116__non_trivial_ifILb1ENS_9allocatorIcEEEC2B8ne180100Ev, symObjAddr: 0x8D4, symBinAddr: 0x100002A84, symSize: 0x14 }
  - { offset: 0xC219, size: 0x8, addend: 0x0, symName: __ZNSt3__126linear_congruential_engineIjLj48271ELj0ELj2147483647EEC1B8ne180100Ej, symObjAddr: 0x91C, symBinAddr: 0x100002ACC, symSize: 0x34 }
  - { offset: 0xC24F, size: 0x8, addend: 0x0, symName: __ZNSt3__126linear_congruential_engineIjLj48271ELj0ELj2147483647EEC2B8ne180100Ej, symObjAddr: 0x950, symBinAddr: 0x100002B00, symSize: 0x34 }
  - { offset: 0xC286, size: 0x8, addend: 0x0, symName: __ZNSt3__126linear_congruential_engineIjLj48271ELj0ELj2147483647EE4seedB8ne180100Ej, symObjAddr: 0x984, symBinAddr: 0x100002B34, symSize: 0x2C }
  - { offset: 0xC2B9, size: 0x8, addend: 0x0, symName: __ZNSt3__126linear_congruential_engineIjLj48271ELj0ELj2147483647EE4seedB8ne180100ENS_17integral_constantIbLb0EEENS2_IbLb1EEEj, symObjAddr: 0x9B0, symBinAddr: 0x100002B60, symSize: 0x74 }
  - { offset: 0xC301, size: 0x8, addend: 0x0, symName: __ZNSt3__124uniform_int_distributionIiEC2B8ne180100Eii, symObjAddr: 0xA24, symBinAddr: 0x100002BD4, symSize: 0x3C }
  - { offset: 0xC345, size: 0x8, addend: 0x0, symName: __ZNSt3__124uniform_int_distributionIiE10param_typeC1B8ne180100Eii, symObjAddr: 0xA60, symBinAddr: 0x100002C10, symSize: 0x3C }
  - { offset: 0xC38A, size: 0x8, addend: 0x0, symName: __ZNSt3__124uniform_int_distributionIiE10param_typeC2B8ne180100Eii, symObjAddr: 0xA9C, symBinAddr: 0x100002C4C, symSize: 0x2C }
  - { offset: 0xC3CF, size: 0x8, addend: 0x0, symName: __ZN9HashTableINSt3__112basic_stringIcNS0_11char_traitsIcEENS0_9allocatorIcEEEEiEC2Ev, symObjAddr: 0xAC8, symBinAddr: 0x100002C78, symSize: 0x6C }
  - { offset: 0xC3F8, size: 0x8, addend: 0x0, symName: __ZNSt3__16vectorINS_3mapINS_12basic_stringIcNS_11char_traitsIcEENS_9allocatorIcEEEEiNS_4lessIS7_EENS5_INS_4pairIKS7_iEEEEEENS5_ISE_EEEC1B8ne180100Ev, symObjAddr: 0xB34, symBinAddr: 0x100002CE4, symSize: 0x2C }
  - { offset: 0xC420, size: 0x8, addend: 0x0, symName: __ZNSt3__16vectorINS_3mapINS_12basic_stringIcNS_11char_traitsIcEENS_9allocatorIcEEEEiNS_4lessIS7_EENS5_INS_4pairIKS7_iEEEEEENS5_ISE_EEE6resizeEm, symObjAddr: 0xB60, symBinAddr: 0x100002D10, symSize: 0x9C }
  - { offset: 0xC464, size: 0x8, addend: 0x0, symName: __ZNSt3__16vectorINS_3mapINS_12basic_stringIcNS_11char_traitsIcEENS_9allocatorIcEEEEiNS_4lessIS7_EENS5_INS_4pairIKS7_iEEEEEENS5_ISE_EEED1B8ne180100Ev, symObjAddr: 0xBFC, symBinAddr: 0x100002DAC, symSize: 0x2C }
  - { offset: 0xC48C, size: 0x8, addend: 0x0, symName: __ZNSt3__16vectorINS_3mapINS_12basic_stringIcNS_11char_traitsIcEENS_9allocatorIcEEEEiNS_4lessIS7_EENS5_INS_4pairIKS7_iEEEEEENS5_ISE_EEEC2B8ne180100Ev, symObjAddr: 0xC28, symBinAddr: 0x100002DD8, symSize: 0x4C }
  - { offset: 0xC4BF, size: 0x8, addend: 0x0, symName: __ZNSt3__117__compressed_pairIPNS_3mapINS_12basic_stringIcNS_11char_traitsIcEENS_9allocatorIcEEEEiNS_4lessIS7_EENS5_INS_4pairIKS7_iEEEEEENS5_ISE_EEEC1B8ne180100IDnNS_18__default_init_tagEEEOT_OT0_, symObjAddr: 0xC74, symBinAddr: 0x100002E24, symSize: 0x3C }
  - { offset: 0xC515, size: 0x8, addend: 0x0, symName: __ZNSt3__117__compressed_pairIPNS_3mapINS_12basic_stringIcNS_11char_traitsIcEENS_9allocatorIcEEEEiNS_4lessIS7_EENS5_INS_4pairIKS7_iEEEEEENS5_ISE_EEEC2B8ne180100IDnNS_18__default_init_tagEEEOT_OT0_, symObjAddr: 0xCB0, symBinAddr: 0x100002E60, symSize: 0x40 }
  - { offset: 0xC56C, size: 0x8, addend: 0x0, symName: __ZNSt3__122__compressed_pair_elemIPNS_3mapINS_12basic_stringIcNS_11char_traitsIcEENS_9allocatorIcEEEEiNS_4lessIS7_EENS5_INS_4pairIKS7_iEEEEEELi0ELb0EEC2B8ne180100IDnvEEOT_, symObjAddr: 0xCF0, symBinAddr: 0x100002EA0, symSize: 0x1C }
  - { offset: 0xC5AC, size: 0x8, addend: 0x0, symName: __ZNSt3__122__compressed_pair_elemINS_9allocatorINS_3mapINS_12basic_stringIcNS_11char_traitsIcEENS1_IcEEEEiNS_4lessIS7_EENS1_INS_4pairIKS7_iEEEEEEEELi1ELb1EEC2B8ne180100ENS_18__default_init_tagE, symObjAddr: 0xD0C, symBinAddr: 0x100002EBC, symSize: 0x2C }
  - { offset: 0xC5DF, size: 0x8, addend: 0x0, symName: __ZNSt3__19allocatorINS_3mapINS_12basic_stringIcNS_11char_traitsIcEENS0_IcEEEEiNS_4lessIS6_EENS0_INS_4pairIKS6_iEEEEEEEC2B8ne180100Ev, symObjAddr: 0xD38, symBinAddr: 0x100002EE8, symSize: 0x2C }
  - { offset: 0xC608, size: 0x8, addend: 0x0, symName: __ZNSt3__116__non_trivial_ifILb1ENS_9allocatorINS_3mapINS_12basic_stringIcNS_11char_traitsIcEENS1_IcEEEEiNS_4lessIS7_EENS1_INS_4pairIKS7_iEEEEEEEEEC2B8ne180100Ev, symObjAddr: 0xD64, symBinAddr: 0x100002F14, symSize: 0x14 }
  - { offset: 0xC631, size: 0x8, addend: 0x0, symName: __ZNKSt3__16vectorINS_3mapINS_12basic_stringIcNS_11char_traitsIcEENS_9allocatorIcEEEEiNS_4lessIS7_EENS5_INS_4pairIKS7_iEEEEEENS5_ISE_EEE4sizeB8ne180100Ev, symObjAddr: 0xD78, symBinAddr: 0x100002F28, symSize: 0x28 }
  - { offset: 0xC655, size: 0x8, addend: 0x0, symName: __ZNSt3__16vectorINS_3mapINS_12basic_stringIcNS_11char_traitsIcEENS_9allocatorIcEEEEiNS_4lessIS7_EENS5_INS_4pairIKS7_iEEEEEENS5_ISE_EEE8__appendEm, symObjAddr: 0xDA0, symBinAddr: 0x100002F50, symSize: 0x108 }
  - { offset: 0xC6AF, size: 0x8, addend: 0x0, symName: __ZNSt3__16vectorINS_3mapINS_12basic_stringIcNS_11char_traitsIcEENS_9allocatorIcEEEEiNS_4lessIS7_EENS5_INS_4pairIKS7_iEEEEEENS5_ISE_EEE17__destruct_at_endB8ne180100EPSE_, symObjAddr: 0xEA8, symBinAddr: 0x100003058, symSize: 0x4C }
  - { offset: 0xC6F2, size: 0x8, addend: 0x0, symName: __ZNSt3__16vectorINS_3mapINS_12basic_stringIcNS_11char_traitsIcEENS_9allocatorIcEEEEiNS_4lessIS7_EENS5_INS_4pairIKS7_iEEEEEENS5_ISE_EEE9__end_capB8ne180100Ev, symObjAddr: 0xEF4, symBinAddr: 0x1000030A4, symSize: 0x28 }
  - { offset: 0xC716, size: 0x8, addend: 0x0, symName: __ZNSt3__16vectorINS_3mapINS_12basic_stringIcNS_11char_traitsIcEENS_9allocatorIcEEEEiNS_4lessIS7_EENS5_INS_4pairIKS7_iEEEEEENS5_ISE_EEE18__construct_at_endEm, symObjAddr: 0xF1C, symBinAddr: 0x1000030CC, symSize: 0xC8 }
  - { offset: 0xC787, size: 0x8, addend: 0x0, symName: __ZNSt3__16vectorINS_3mapINS_12basic_stringIcNS_11char_traitsIcEENS_9allocatorIcEEEEiNS_4lessIS7_EENS5_INS_4pairIKS7_iEEEEEENS5_ISE_EEE7__allocB8ne180100Ev, symObjAddr: 0xFE4, symBinAddr: 0x100003194, symSize: 0x28 }
  - { offset: 0xC7AB, size: 0x8, addend: 0x0, symName: __ZNKSt3__16vectorINS_3mapINS_12basic_stringIcNS_11char_traitsIcEENS_9allocatorIcEEEEiNS_4lessIS7_EENS5_INS_4pairIKS7_iEEEEEENS5_ISE_EEE11__recommendB8ne180100Em, symObjAddr: 0x100C, symBinAddr: 0x1000031BC, symSize: 0xB4 }
  - { offset: 0xC7FF, size: 0x8, addend: 0x0, symName: __ZNSt3__114__split_bufferINS_3mapINS_12basic_stringIcNS_11char_traitsIcEENS_9allocatorIcEEEEiNS_4lessIS7_EENS5_INS_4pairIKS7_iEEEEEERNS5_ISE_EEEC1EmmSG_, symObjAddr: 0x10C0, symBinAddr: 0x100003270, symSize: 0x44 }
  - { offset: 0xC853, size: 0x8, addend: 0x0, symName: __ZNSt3__114__split_bufferINS_3mapINS_12basic_stringIcNS_11char_traitsIcEENS_9allocatorIcEEEEiNS_4lessIS7_EENS5_INS_4pairIKS7_iEEEEEERNS5_ISE_EEE18__construct_at_endEm, symObjAddr: 0x1104, symBinAddr: 0x1000032B4, symSize: 0xB4 }
  - { offset: 0xC895, size: 0x8, addend: 0x0, symName: __ZNSt3__114__split_bufferINS_3mapINS_12basic_stringIcNS_11char_traitsIcEENS_9allocatorIcEEEEiNS_4lessIS7_EENS5_INS_4pairIKS7_iEEEEEERNS5_ISE_EEED1Ev, symObjAddr: 0x12C8, symBinAddr: 0x100003478, symSize: 0x2C }
  - { offset: 0xC8C0, size: 0x8, addend: 0x0, symName: __ZNSt3__117__compressed_pairIPNS_3mapINS_12basic_stringIcNS_11char_traitsIcEENS_9allocatorIcEEEEiNS_4lessIS7_EENS5_INS_4pairIKS7_iEEEEEENS5_ISE_EEE5firstB8ne180100Ev, symObjAddr: 0x12F4, symBinAddr: 0x1000034A4, symSize: 0x24 }
  - { offset: 0xC8E5, size: 0x8, addend: 0x0, symName: __ZNSt3__122__compressed_pair_elemIPNS_3mapINS_12basic_stringIcNS_11char_traitsIcEENS_9allocatorIcEEEEiNS_4lessIS7_EENS5_INS_4pairIKS7_iEEEEEELi0ELb0EE5__getB8ne180100Ev, symObjAddr: 0x1318, symBinAddr: 0x1000034C8, symSize: 0x14 }
  - { offset: 0xC922, size: 0x8, addend: 0x0, symName: __ZNSt3__16vectorINS_3mapINS_12basic_stringIcNS_11char_traitsIcEENS_9allocatorIcEEEEiNS_4lessIS7_EENS5_INS_4pairIKS7_iEEEEEENS5_ISE_EEE21_ConstructTransactionC1B8ne180100ERSG_m, symObjAddr: 0x132C, symBinAddr: 0x1000034DC, symSize: 0x3C }
  - { offset: 0xC969, size: 0x8, addend: 0x0, symName: __ZNSt3__116allocator_traitsINS_9allocatorINS_3mapINS_12basic_stringIcNS_11char_traitsIcEENS1_IcEEEEiNS_4lessIS7_EENS1_INS_4pairIKS7_iEEEEEEEEE9constructB8ne180100ISE_JEvEEvRSF_PT_DpOT0_, symObjAddr: 0x1368, symBinAddr: 0x100003518, symSize: 0x2C }
  - { offset: 0xC9AA, size: 0x8, addend: 0x0, symName: __ZNSt3__16vectorINS_3mapINS_12basic_stringIcNS_11char_traitsIcEENS_9allocatorIcEEEEiNS_4lessIS7_EENS5_INS_4pairIKS7_iEEEEEENS5_ISE_EEE21_ConstructTransactionD1B8ne180100Ev, symObjAddr: 0x13A8, symBinAddr: 0x100003558, symSize: 0x2C }
  - { offset: 0xC9D3, size: 0x8, addend: 0x0, symName: __ZNSt3__16vectorINS_3mapINS_12basic_stringIcNS_11char_traitsIcEENS_9allocatorIcEEEEiNS_4lessIS7_EENS5_INS_4pairIKS7_iEEEEEENS5_ISE_EEE21_ConstructTransactionC2B8ne180100ERSG_m, symObjAddr: 0x13D4, symBinAddr: 0x100003584, symSize: 0x4C }
  - { offset: 0xCA1A, size: 0x8, addend: 0x0, symName: __ZNSt3__19allocatorINS_3mapINS_12basic_stringIcNS_11char_traitsIcEENS0_IcEEEEiNS_4lessIS6_EENS0_INS_4pairIKS6_iEEEEEEE9constructB8ne180100ISD_JEEEvPT_DpOT0_, symObjAddr: 0x1420, symBinAddr: 0x1000035D0, symSize: 0x28 }
  - { offset: 0xCA5A, size: 0x8, addend: 0x0, symName: __ZNSt3__13mapINS_12basic_stringIcNS_11char_traitsIcEENS_9allocatorIcEEEEiNS_4lessIS6_EENS4_INS_4pairIKS6_iEEEEEC1B8ne180100Ev, symObjAddr: 0x1448, symBinAddr: 0x1000035F8, symSize: 0x2C }
  - { offset: 0xCA82, size: 0x8, addend: 0x0, symName: __ZNSt3__13mapINS_12basic_stringIcNS_11char_traitsIcEENS_9allocatorIcEEEEiNS_4lessIS6_EENS4_INS_4pairIKS6_iEEEEEC2B8ne180100Ev, symObjAddr: 0x1474, symBinAddr: 0x100003624, symSize: 0x40 }
  - { offset: 0xCAAA, size: 0x8, addend: 0x0, symName: __ZNSt3__119__map_value_compareINS_12basic_stringIcNS_11char_traitsIcEENS_9allocatorIcEEEENS_12__value_typeIS6_iEENS_4lessIS6_EELb1EEC1B8ne180100ESA_, symObjAddr: 0x14B4, symBinAddr: 0x100003664, symSize: 0x2C }
  - { offset: 0xCAE2, size: 0x8, addend: 0x0, symName: __ZNSt3__16__treeINS_12__value_typeINS_12basic_stringIcNS_11char_traitsIcEENS_9allocatorIcEEEEiEENS_19__map_value_compareIS7_S8_NS_4lessIS7_EELb1EEENS5_IS8_EEEC1ERKSC_, symObjAddr: 0x14E0, symBinAddr: 0x100003690, symSize: 0x34 }
  - { offset: 0xCB1C, size: 0x8, addend: 0x0, symName: __ZNSt3__119__map_value_compareINS_12basic_stringIcNS_11char_traitsIcEENS_9allocatorIcEEEENS_12__value_typeIS6_iEENS_4lessIS6_EELb1EEC2B8ne180100ESA_, symObjAddr: 0x1514, symBinAddr: 0x1000036C4, symSize: 0x14 }
  - { offset: 0xCB54, size: 0x8, addend: 0x0, symName: __ZNSt3__16__treeINS_12__value_typeINS_12basic_stringIcNS_11char_traitsIcEENS_9allocatorIcEEEEiEENS_19__map_value_compareIS7_S8_NS_4lessIS7_EELb1EEENS5_IS8_EEEC2ERKSC_, symObjAddr: 0x1528, symBinAddr: 0x1000036D8, symSize: 0x7C }
  - { offset: 0xCB8D, size: 0x8, addend: 0x0, symName: __ZNSt3__117__compressed_pairINS_15__tree_end_nodeIPNS_16__tree_node_baseIPvEEEENS_9allocatorINS_11__tree_nodeINS_12__value_typeINS_12basic_stringIcNS_11char_traitsIcEENS7_IcEEEEiEES3_EEEEEC1B8ne180100ILb1EvEEv, symObjAddr: 0x15A4, symBinAddr: 0x100003754, symSize: 0x2C }
  - { offset: 0xCBC5, size: 0x8, addend: 0x0, symName: __ZNSt3__117__compressed_pairImNS_19__map_value_compareINS_12basic_stringIcNS_11char_traitsIcEENS_9allocatorIcEEEENS_12__value_typeIS7_iEENS_4lessIS7_EELb1EEEEC1B8ne180100IiRKSC_EEOT_OT0_, symObjAddr: 0x15D0, symBinAddr: 0x100003780, symSize: 0x3C }
  - { offset: 0xCC1C, size: 0x8, addend: 0x0, symName: __ZNSt3__16__treeINS_12__value_typeINS_12basic_stringIcNS_11char_traitsIcEENS_9allocatorIcEEEEiEENS_19__map_value_compareIS7_S8_NS_4lessIS7_EELb1EEENS5_IS8_EEE10__end_nodeB8ne180100Ev, symObjAddr: 0x160C, symBinAddr: 0x1000037BC, symSize: 0x2C }
  - { offset: 0xCC41, size: 0x8, addend: 0x0, symName: __ZNSt3__16__treeINS_12__value_typeINS_12basic_stringIcNS_11char_traitsIcEENS_9allocatorIcEEEEiEENS_19__map_value_compareIS7_S8_NS_4lessIS7_EELb1EEENS5_IS8_EEE12__begin_nodeB8ne180100Ev, symObjAddr: 0x1638, symBinAddr: 0x1000037E8, symSize: 0x14 }
  - { offset: 0xCC65, size: 0x8, addend: 0x0, symName: __ZNSt3__117__compressed_pairINS_15__tree_end_nodeIPNS_16__tree_node_baseIPvEEEENS_9allocatorINS_11__tree_nodeINS_12__value_typeINS_12basic_stringIcNS_11char_traitsIcEENS7_IcEEEEiEES3_EEEEEC2B8ne180100ILb1EvEEv, symObjAddr: 0x164C, symBinAddr: 0x1000037FC, symSize: 0x34 }
  - { offset: 0xCC98, size: 0x8, addend: 0x0, symName: __ZNSt3__122__compressed_pair_elemINS_15__tree_end_nodeIPNS_16__tree_node_baseIPvEEEELi0ELb0EEC2B8ne180100ENS_16__value_init_tagE, symObjAddr: 0x1680, symBinAddr: 0x100003830, symSize: 0x2C }
  - { offset: 0xCCCB, size: 0x8, addend: 0x0, symName: __ZNSt3__122__compressed_pair_elemINS_9allocatorINS_11__tree_nodeINS_12__value_typeINS_12basic_stringIcNS_11char_traitsIcEENS1_IcEEEEiEEPvEEEELi1ELb1EEC2B8ne180100ENS_16__value_init_tagE, symObjAddr: 0x16AC, symBinAddr: 0x10000385C, symSize: 0x2C }
  - { offset: 0xCCFE, size: 0x8, addend: 0x0, symName: __ZNSt3__115__tree_end_nodeIPNS_16__tree_node_baseIPvEEEC1B8ne180100Ev, symObjAddr: 0x16D8, symBinAddr: 0x100003888, symSize: 0x2C }
  - { offset: 0xCD27, size: 0x8, addend: 0x0, symName: __ZNSt3__115__tree_end_nodeIPNS_16__tree_node_baseIPvEEEC2B8ne180100Ev, symObjAddr: 0x1704, symBinAddr: 0x1000038B4, symSize: 0x18 }
  - { offset: 0xCD4F, size: 0x8, addend: 0x0, symName: __ZNSt3__19allocatorINS_11__tree_nodeINS_12__value_typeINS_12basic_stringIcNS_11char_traitsIcEENS0_IcEEEEiEEPvEEEC2B8ne180100Ev, symObjAddr: 0x171C, symBinAddr: 0x1000038CC, symSize: 0x2C }
  - { offset: 0xCD78, size: 0x8, addend: 0x0, symName: __ZNSt3__116__non_trivial_ifILb1ENS_9allocatorINS_11__tree_nodeINS_12__value_typeINS_12basic_stringIcNS_11char_traitsIcEENS1_IcEEEEiEEPvEEEEEC2B8ne180100Ev, symObjAddr: 0x1748, symBinAddr: 0x1000038F8, symSize: 0x14 }
  - { offset: 0xCDA0, size: 0x8, addend: 0x0, symName: __ZNSt3__117__compressed_pairImNS_19__map_value_compareINS_12basic_stringIcNS_11char_traitsIcEENS_9allocatorIcEEEENS_12__value_typeIS7_iEENS_4lessIS7_EELb1EEEEC2B8ne180100IiRKSC_EEOT_OT0_, symObjAddr: 0x175C, symBinAddr: 0x10000390C, symSize: 0x44 }
  - { offset: 0xCDF7, size: 0x8, addend: 0x0, symName: __ZNSt3__122__compressed_pair_elemImLi0ELb0EEC2B8ne180100IivEEOT_, symObjAddr: 0x17A0, symBinAddr: 0x100003950, symSize: 0x24 }
  - { offset: 0xCE38, size: 0x8, addend: 0x0, symName: __ZNSt3__122__compressed_pair_elemINS_19__map_value_compareINS_12basic_stringIcNS_11char_traitsIcEENS_9allocatorIcEEEENS_12__value_typeIS7_iEENS_4lessIS7_EELb1EEELi1ELb1EEC2B8ne180100IRKSC_vEEOT_, symObjAddr: 0x17C4, symBinAddr: 0x100003974, symSize: 0x18 }
  - { offset: 0xCE79, size: 0x8, addend: 0x0, symName: __ZNSt3__114pointer_traitsIPNS_15__tree_end_nodeIPNS_16__tree_node_baseIPvEEEEE10pointer_toB8ne180100ERS6_, symObjAddr: 0x17DC, symBinAddr: 0x10000398C, symSize: 0x14 }
  - { offset: 0xCE9C, size: 0x8, addend: 0x0, symName: __ZNSt3__117__compressed_pairINS_15__tree_end_nodeIPNS_16__tree_node_baseIPvEEEENS_9allocatorINS_11__tree_nodeINS_12__value_typeINS_12basic_stringIcNS_11char_traitsIcEENS7_IcEEEEiEES3_EEEEE5firstB8ne180100Ev, symObjAddr: 0x17F0, symBinAddr: 0x1000039A0, symSize: 0x24 }
  - { offset: 0xCEC1, size: 0x8, addend: 0x0, symName: __ZNSt3__122__compressed_pair_elemINS_15__tree_end_nodeIPNS_16__tree_node_baseIPvEEEELi0ELb0EE5__getB8ne180100Ev, symObjAddr: 0x1814, symBinAddr: 0x1000039C4, symSize: 0x14 }
  - { offset: 0xCEE6, size: 0x8, addend: 0x0, symName: __ZNSt3__16vectorINS_3mapINS_12basic_stringIcNS_11char_traitsIcEENS_9allocatorIcEEEEiNS_4lessIS7_EENS5_INS_4pairIKS7_iEEEEEENS5_ISE_EEE21_ConstructTransactionD2B8ne180100Ev, symObjAddr: 0x1828, symBinAddr: 0x1000039D8, symSize: 0x20 }
  - { offset: 0xCF0F, size: 0x8, addend: 0x0, symName: __ZNSt3__117__compressed_pairIPNS_3mapINS_12basic_stringIcNS_11char_traitsIcEENS_9allocatorIcEEEEiNS_4lessIS7_EENS5_INS_4pairIKS7_iEEEEEENS5_ISE_EEE6secondB8ne180100Ev, symObjAddr: 0x1848, symBinAddr: 0x1000039F8, symSize: 0x24 }
  - { offset: 0xCF34, size: 0x8, addend: 0x0, symName: __ZNSt3__122__compressed_pair_elemINS_9allocatorINS_3mapINS_12basic_stringIcNS_11char_traitsIcEENS1_IcEEEEiNS_4lessIS7_EENS1_INS_4pairIKS7_iEEEEEEEELi1ELb1EE5__getB8ne180100Ev, symObjAddr: 0x186C, symBinAddr: 0x100003A1C, symSize: 0x14 }
  - { offset: 0xCF58, size: 0x8, addend: 0x0, symName: __ZNKSt3__16vectorINS_3mapINS_12basic_stringIcNS_11char_traitsIcEENS_9allocatorIcEEEEiNS_4lessIS7_EENS5_INS_4pairIKS7_iEEEEEENS5_ISE_EEE8max_sizeEv, symObjAddr: 0x1880, symBinAddr: 0x100003A30, symSize: 0x60 }
  - { offset: 0xCF7F, size: 0x8, addend: 0x0, symName: __ZNKSt3__16vectorINS_3mapINS_12basic_stringIcNS_11char_traitsIcEENS_9allocatorIcEEEEiNS_4lessIS7_EENS5_INS_4pairIKS7_iEEEEEENS5_ISE_EEE20__throw_length_errorB8ne180100Ev, symObjAddr: 0x18E0, symBinAddr: 0x100003A90, symSize: 0x1C }
  - { offset: 0xCFA4, size: 0x8, addend: 0x0, symName: __ZNKSt3__16vectorINS_3mapINS_12basic_stringIcNS_11char_traitsIcEENS_9allocatorIcEEEEiNS_4lessIS7_EENS5_INS_4pairIKS7_iEEEEEENS5_ISE_EEE8capacityB8ne180100Ev, symObjAddr: 0x18FC, symBinAddr: 0x100003AAC, symSize: 0x40 }
  - { offset: 0xCFD3, size: 0x8, addend: 0x0, symName: __ZNSt3__116allocator_traitsINS_9allocatorINS_3mapINS_12basic_stringIcNS_11char_traitsIcEENS1_IcEEEEiNS_4lessIS7_EENS1_INS_4pairIKS7_iEEEEEEEEE8max_sizeB8ne180100ISF_vEEmRKSF_, symObjAddr: 0x1994, symBinAddr: 0x100003B44, symSize: 0x24 }
  - { offset: 0xD001, size: 0x8, addend: 0x0, symName: __ZNKSt3__16vectorINS_3mapINS_12basic_stringIcNS_11char_traitsIcEENS_9allocatorIcEEEEiNS_4lessIS7_EENS5_INS_4pairIKS7_iEEEEEENS5_ISE_EEE7__allocB8ne180100Ev, symObjAddr: 0x19B8, symBinAddr: 0x100003B68, symSize: 0x28 }
  - { offset: 0xD026, size: 0x8, addend: 0x0, symName: __ZNSt3__114numeric_limitsIlE3maxB8ne180100Ev, symObjAddr: 0x19E0, symBinAddr: 0x100003B90, symSize: 0x14 }
  - { offset: 0xD044, size: 0x8, addend: 0x0, symName: __ZNKSt3__16__lessIvvEclB8ne180100ImmEEbRKT_RKT0_, symObjAddr: 0x1A48, symBinAddr: 0x100003BF8, symSize: 0x34 }
  - { offset: 0xD097, size: 0x8, addend: 0x0, symName: __ZNKSt3__19allocatorINS_3mapINS_12basic_stringIcNS_11char_traitsIcEENS0_IcEEEEiNS_4lessIS6_EENS0_INS_4pairIKS6_iEEEEEEE8max_sizeB8ne180100Ev, symObjAddr: 0x1A7C, symBinAddr: 0x100003C2C, symSize: 0x18 }
  - { offset: 0xD0BC, size: 0x8, addend: 0x0, symName: __ZNKSt3__117__compressed_pairIPNS_3mapINS_12basic_stringIcNS_11char_traitsIcEENS_9allocatorIcEEEEiNS_4lessIS7_EENS5_INS_4pairIKS7_iEEEEEENS5_ISE_EEE6secondB8ne180100Ev, symObjAddr: 0x1A94, symBinAddr: 0x100003C44, symSize: 0x24 }
  - { offset: 0xD0E1, size: 0x8, addend: 0x0, symName: __ZNKSt3__122__compressed_pair_elemINS_9allocatorINS_3mapINS_12basic_stringIcNS_11char_traitsIcEENS1_IcEEEEiNS_4lessIS7_EENS1_INS_4pairIKS7_iEEEEEEEELi1ELb1EE5__getB8ne180100Ev, symObjAddr: 0x1AB8, symBinAddr: 0x100003C68, symSize: 0x14 }
  - { offset: 0xD106, size: 0x8, addend: 0x0, symName: __ZNSt3__123__libcpp_numeric_limitsIlLb1EE3maxB8ne180100Ev, symObjAddr: 0x1ACC, symBinAddr: 0x100003C7C, symSize: 0x8 }
  - { offset: 0xD119, size: 0x8, addend: 0x0, symName: __ZNSt12length_errorC1B8ne180100EPKc, symObjAddr: 0x1B38, symBinAddr: 0x100003CE8, symSize: 0x34 }
  - { offset: 0xD14F, size: 0x8, addend: 0x0, symName: __ZNSt12length_errorC2B8ne180100EPKc, symObjAddr: 0x1B6C, symBinAddr: 0x100003D1C, symSize: 0x44 }
  - { offset: 0xD186, size: 0x8, addend: 0x0, symName: __ZNKSt3__16vectorINS_3mapINS_12basic_stringIcNS_11char_traitsIcEENS_9allocatorIcEEEEiNS_4lessIS7_EENS5_INS_4pairIKS7_iEEEEEENS5_ISE_EEE9__end_capB8ne180100Ev, symObjAddr: 0x1BB0, symBinAddr: 0x100003D60, symSize: 0x28 }
  - { offset: 0xD1AB, size: 0x8, addend: 0x0, symName: __ZNKSt3__117__compressed_pairIPNS_3mapINS_12basic_stringIcNS_11char_traitsIcEENS_9allocatorIcEEEEiNS_4lessIS7_EENS5_INS_4pairIKS7_iEEEEEENS5_ISE_EEE5firstB8ne180100Ev, symObjAddr: 0x1BD8, symBinAddr: 0x100003D88, symSize: 0x24 }
  - { offset: 0xD1D0, size: 0x8, addend: 0x0, symName: __ZNKSt3__122__compressed_pair_elemIPNS_3mapINS_12basic_stringIcNS_11char_traitsIcEENS_9allocatorIcEEEEiNS_4lessIS7_EENS5_INS_4pairIKS7_iEEEEEELi0ELb0EE5__getB8ne180100Ev, symObjAddr: 0x1BFC, symBinAddr: 0x100003DAC, symSize: 0x14 }
  - { offset: 0xD1F5, size: 0x8, addend: 0x0, symName: __ZNSt3__114__split_bufferINS_3mapINS_12basic_stringIcNS_11char_traitsIcEENS_9allocatorIcEEEEiNS_4lessIS7_EENS5_INS_4pairIKS7_iEEEEEERNS5_ISE_EEEC2EmmSG_, symObjAddr: 0x1C64, symBinAddr: 0x100003E14, symSize: 0xE0 }
  - { offset: 0xD266, size: 0x8, addend: 0x0, symName: __ZNSt3__117__compressed_pairIPNS_3mapINS_12basic_stringIcNS_11char_traitsIcEENS_9allocatorIcEEEEiNS_4lessIS7_EENS5_INS_4pairIKS7_iEEEEEERNS5_ISE_EEEC1B8ne180100IDnSH_EEOT_OT0_, symObjAddr: 0x1D44, symBinAddr: 0x100003EF4, symSize: 0x3C }
  - { offset: 0xD2BD, size: 0x8, addend: 0x0, symName: __ZNSt3__114__split_bufferINS_3mapINS_12basic_stringIcNS_11char_traitsIcEENS_9allocatorIcEEEEiNS_4lessIS7_EENS5_INS_4pairIKS7_iEEEEEERNS5_ISE_EEE7__allocB8ne180100Ev, symObjAddr: 0x1DC0, symBinAddr: 0x100003F70, symSize: 0x28 }
  - { offset: 0xD2E2, size: 0x8, addend: 0x0, symName: __ZNSt3__114__split_bufferINS_3mapINS_12basic_stringIcNS_11char_traitsIcEENS_9allocatorIcEEEEiNS_4lessIS7_EENS5_INS_4pairIKS7_iEEEEEERNS5_ISE_EEE9__end_capB8ne180100Ev, symObjAddr: 0x1DE8, symBinAddr: 0x100003F98, symSize: 0x28 }
  - { offset: 0xD306, size: 0x8, addend: 0x0, symName: __ZNSt3__117__compressed_pairIPNS_3mapINS_12basic_stringIcNS_11char_traitsIcEENS_9allocatorIcEEEEiNS_4lessIS7_EENS5_INS_4pairIKS7_iEEEEEERNS5_ISE_EEEC2B8ne180100IDnSH_EEOT_OT0_, symObjAddr: 0x1E10, symBinAddr: 0x100003FC0, symSize: 0x48 }
  - { offset: 0xD35D, size: 0x8, addend: 0x0, symName: __ZNSt3__122__compressed_pair_elemIRNS_9allocatorINS_3mapINS_12basic_stringIcNS_11char_traitsIcEENS1_IcEEEEiNS_4lessIS7_EENS1_INS_4pairIKS7_iEEEEEEEELi1ELb0EEC2B8ne180100ISG_vEEOT_, symObjAddr: 0x1E58, symBinAddr: 0x100004008, symSize: 0x20 }
  - { offset: 0xD39E, size: 0x8, addend: 0x0, symName: __ZNSt3__19allocatorINS_3mapINS_12basic_stringIcNS_11char_traitsIcEENS0_IcEEEEiNS_4lessIS6_EENS0_INS_4pairIKS6_iEEEEEEE8allocateB8ne180100Em, symObjAddr: 0x1E78, symBinAddr: 0x100004028, symSize: 0x5C }
  - { offset: 0xD3D1, size: 0x8, addend: 0x0, symName: __ZNSt3__117__compressed_pairIPNS_3mapINS_12basic_stringIcNS_11char_traitsIcEENS_9allocatorIcEEEEiNS_4lessIS7_EENS5_INS_4pairIKS7_iEEEEEERNS5_ISE_EEE6secondB8ne180100Ev, symObjAddr: 0x1F54, symBinAddr: 0x100004104, symSize: 0x28 }
  - { offset: 0xD3F6, size: 0x8, addend: 0x0, symName: __ZNSt3__122__compressed_pair_elemIRNS_9allocatorINS_3mapINS_12basic_stringIcNS_11char_traitsIcEENS1_IcEEEEiNS_4lessIS7_EENS1_INS_4pairIKS7_iEEEEEEEELi1ELb0EE5__getB8ne180100Ev, symObjAddr: 0x1F7C, symBinAddr: 0x10000412C, symSize: 0x18 }
  - { offset: 0xD41B, size: 0x8, addend: 0x0, symName: __ZNSt3__117__compressed_pairIPNS_3mapINS_12basic_stringIcNS_11char_traitsIcEENS_9allocatorIcEEEEiNS_4lessIS7_EENS5_INS_4pairIKS7_iEEEEEERNS5_ISE_EEE5firstB8ne180100Ev, symObjAddr: 0x1F94, symBinAddr: 0x100004144, symSize: 0x24 }
  - { offset: 0xD449, size: 0x8, addend: 0x0, symName: __ZNSt3__114__split_bufferINS_3mapINS_12basic_stringIcNS_11char_traitsIcEENS_9allocatorIcEEEEiNS_4lessIS7_EENS5_INS_4pairIKS7_iEEEEEERNS5_ISE_EEE21_ConstructTransactionC1B8ne180100EPPSE_m, symObjAddr: 0x1FB8, symBinAddr: 0x100004168, symSize: 0x3C }
  - { offset: 0xD48D, size: 0x8, addend: 0x0, symName: __ZNSt3__114__split_bufferINS_3mapINS_12basic_stringIcNS_11char_traitsIcEENS_9allocatorIcEEEEiNS_4lessIS7_EENS5_INS_4pairIKS7_iEEEEEERNS5_ISE_EEE21_ConstructTransactionD1B8ne180100Ev, symObjAddr: 0x1FF4, symBinAddr: 0x1000041A4, symSize: 0x2C }
  - { offset: 0xD4B6, size: 0x8, addend: 0x0, symName: __ZNSt3__114__split_bufferINS_3mapINS_12basic_stringIcNS_11char_traitsIcEENS_9allocatorIcEEEEiNS_4lessIS7_EENS5_INS_4pairIKS7_iEEEEEERNS5_ISE_EEE21_ConstructTransactionC2B8ne180100EPPSE_m, symObjAddr: 0x2020, symBinAddr: 0x1000041D0, symSize: 0x4C }
  - { offset: 0xD4FB, size: 0x8, addend: 0x0, symName: __ZNSt3__114__split_bufferINS_3mapINS_12basic_stringIcNS_11char_traitsIcEENS_9allocatorIcEEEEiNS_4lessIS7_EENS5_INS_4pairIKS7_iEEEEEERNS5_ISE_EEE21_ConstructTransactionD2B8ne180100Ev, symObjAddr: 0x206C, symBinAddr: 0x10000421C, symSize: 0x20 }
  - { offset: 0xD524, size: 0x8, addend: 0x0, symName: __ZNKSt3__16vectorINS_3mapINS_12basic_stringIcNS_11char_traitsIcEENS_9allocatorIcEEEEiNS_4lessIS7_EENS5_INS_4pairIKS7_iEEEEEENS5_ISE_EEE17__annotate_deleteB8ne180100Ev, symObjAddr: 0x208C, symBinAddr: 0x10000423C, symSize: 0x10 }
  - { offset: 0xD548, size: 0x8, addend: 0x0, symName: __ZNSt3__116reverse_iteratorIPNS_3mapINS_12basic_stringIcNS_11char_traitsIcEENS_9allocatorIcEEEEiNS_4lessIS7_EENS5_INS_4pairIKS7_iEEEEEEEC1B8ne180100ESF_, symObjAddr: 0x21C8, symBinAddr: 0x100004378, symSize: 0x34 }
  - { offset: 0xD57F, size: 0x8, addend: 0x0, symName: __ZNKSt3__116reverse_iteratorIPNS_3mapINS_12basic_stringIcNS_11char_traitsIcEENS_9allocatorIcEEEEiNS_4lessIS7_EENS5_INS_4pairIKS7_iEEEEEEE4baseB8ne180100Ev, symObjAddr: 0x21FC, symBinAddr: 0x1000043AC, symSize: 0x18 }
  - { offset: 0xD5A4, size: 0x8, addend: 0x0, symName: __ZNKSt3__16vectorINS_3mapINS_12basic_stringIcNS_11char_traitsIcEENS_9allocatorIcEEEEiNS_4lessIS7_EENS5_INS_4pairIKS7_iEEEEEENS5_ISE_EEE14__annotate_newB8ne180100Em, symObjAddr: 0x2250, symBinAddr: 0x100004400, symSize: 0x14 }
  - { offset: 0xD5D7, size: 0x8, addend: 0x0, symName: __ZNSt3__129_AllocatorDestroyRangeReverseINS_9allocatorINS_3mapINS_12basic_stringIcNS_11char_traitsIcEENS1_IcEEEEiNS_4lessIS7_EENS1_INS_4pairIKS7_iEEEEEEEENS_16reverse_iteratorIPSE_EEEC1B8ne180100ERSF_RSI_SL_, symObjAddr: 0x22B0, symBinAddr: 0x100004460, symSize: 0x44 }
  - { offset: 0xD62D, size: 0x8, addend: 0x0, symName: __ZNSt3__116allocator_traitsINS_9allocatorINS_3mapINS_12basic_stringIcNS_11char_traitsIcEENS1_IcEEEEiNS_4lessIS7_EENS1_INS_4pairIKS7_iEEEEEEEEE9constructB8ne180100ISE_JSE_EvEEvRSF_PT_DpOT0_, symObjAddr: 0x233C, symBinAddr: 0x1000044EC, symSize: 0x34 }
  - { offset: 0xD684, size: 0x8, addend: 0x0, symName: __ZNKSt3__116reverse_iteratorIPNS_3mapINS_12basic_stringIcNS_11char_traitsIcEENS_9allocatorIcEEEEiNS_4lessIS7_EENS5_INS_4pairIKS7_iEEEEEEEdeB8ne180100Ev, symObjAddr: 0x2394, symBinAddr: 0x100004544, symSize: 0x28 }
  - { offset: 0xD6B7, size: 0x8, addend: 0x0, symName: __ZNSt3__116reverse_iteratorIPNS_3mapINS_12basic_stringIcNS_11char_traitsIcEENS_9allocatorIcEEEEiNS_4lessIS7_EENS5_INS_4pairIKS7_iEEEEEEEppB8ne180100Ev, symObjAddr: 0x23BC, symBinAddr: 0x10000456C, symSize: 0x20 }
  - { offset: 0xD6DC, size: 0x8, addend: 0x0, symName: __ZNSt3__128__exception_guard_exceptionsINS_29_AllocatorDestroyRangeReverseINS_9allocatorINS_3mapINS_12basic_stringIcNS_11char_traitsIcEENS2_IcEEEEiNS_4lessIS8_EENS2_INS_4pairIKS8_iEEEEEEEENS_16reverse_iteratorIPSF_EEEEE10__completeB8ne180100Ev, symObjAddr: 0x23DC, symBinAddr: 0x10000458C, symSize: 0x1C }
  - { offset: 0xD700, size: 0x8, addend: 0x0, symName: __ZNSt3__128__exception_guard_exceptionsINS_29_AllocatorDestroyRangeReverseINS_9allocatorINS_3mapINS_12basic_stringIcNS_11char_traitsIcEENS2_IcEEEEiNS_4lessIS8_EENS2_INS_4pairIKS8_iEEEEEEEENS_16reverse_iteratorIPSF_EEEEED1B8ne180100Ev, symObjAddr: 0x23F8, symBinAddr: 0x1000045A8, symSize: 0x2C }
  - { offset: 0xD728, size: 0x8, addend: 0x0, symName: __ZNSt3__128__exception_guard_exceptionsINS_29_AllocatorDestroyRangeReverseINS_9allocatorINS_3mapINS_12basic_stringIcNS_11char_traitsIcEENS2_IcEEEEiNS_4lessIS8_EENS2_INS_4pairIKS8_iEEEEEEEENS_16reverse_iteratorIPSF_EEEEEC1B8ne180100ESK_, symObjAddr: 0x2424, symBinAddr: 0x1000045D4, symSize: 0x34 }
  - { offset: 0xD760, size: 0x8, addend: 0x0, symName: __ZNSt3__128__exception_guard_exceptionsINS_29_AllocatorDestroyRangeReverseINS_9allocatorINS_3mapINS_12basic_stringIcNS_11char_traitsIcEENS2_IcEEEEiNS_4lessIS8_EENS2_INS_4pairIKS8_iEEEEEEEENS_16reverse_iteratorIPSF_EEEEEC2B8ne180100ESK_, symObjAddr: 0x2458, symBinAddr: 0x100004608, symSize: 0x30 }
  - { offset: 0xD798, size: 0x8, addend: 0x0, symName: __ZNSt3__129_AllocatorDestroyRangeReverseINS_9allocatorINS_3mapINS_12basic_stringIcNS_11char_traitsIcEENS1_IcEEEEiNS_4lessIS7_EENS1_INS_4pairIKS7_iEEEEEEEENS_16reverse_iteratorIPSE_EEEC2B8ne180100ERSF_RSI_SL_, symObjAddr: 0x2488, symBinAddr: 0x100004638, symSize: 0x38 }
  - { offset: 0xD7EE, size: 0x8, addend: 0x0, symName: __ZNSt3__19allocatorINS_3mapINS_12basic_stringIcNS_11char_traitsIcEENS0_IcEEEEiNS_4lessIS6_EENS0_INS_4pairIKS6_iEEEEEEE9constructB8ne180100ISD_JSD_EEEvPT_DpOT0_, symObjAddr: 0x24C0, symBinAddr: 0x100004670, symSize: 0x30 }
  - { offset: 0xD842, size: 0x8, addend: 0x0, symName: __ZNSt3__13mapINS_12basic_stringIcNS_11char_traitsIcEENS_9allocatorIcEEEEiNS_4lessIS6_EENS4_INS_4pairIKS6_iEEEEEC1B8ne180100EOSD_, symObjAddr: 0x24F0, symBinAddr: 0x1000046A0, symSize: 0x34 }
  - { offset: 0xD879, size: 0x8, addend: 0x0, symName: __ZNSt3__13mapINS_12basic_stringIcNS_11char_traitsIcEENS_9allocatorIcEEEEiNS_4lessIS6_EENS4_INS_4pairIKS6_iEEEEEC2B8ne180100EOSD_, symObjAddr: 0x2524, symBinAddr: 0x1000046D4, symSize: 0x34 }
  - { offset: 0xD8B1, size: 0x8, addend: 0x0, symName: __ZNSt3__16__treeINS_12__value_typeINS_12basic_stringIcNS_11char_traitsIcEENS_9allocatorIcEEEEiEENS_19__map_value_compareIS7_S8_NS_4lessIS7_EELb1EEENS5_IS8_EEEC1EOSE_, symObjAddr: 0x2558, symBinAddr: 0x100004708, symSize: 0x34 }
  - { offset: 0xD8EB, size: 0x8, addend: 0x0, symName: __ZNSt3__16__treeINS_12__value_typeINS_12basic_stringIcNS_11char_traitsIcEENS_9allocatorIcEEEEiEENS_19__map_value_compareIS7_S8_NS_4lessIS7_EELb1EEENS5_IS8_EEEC2EOSE_, symObjAddr: 0x258C, symBinAddr: 0x10000473C, symSize: 0xFC }
  - { offset: 0xD925, size: 0x8, addend: 0x0, symName: __ZNSt3__16__treeINS_12__value_typeINS_12basic_stringIcNS_11char_traitsIcEENS_9allocatorIcEEEEiEENS_19__map_value_compareIS7_S8_NS_4lessIS7_EELb1EEENS5_IS8_EEE4sizeB8ne180100Ev, symObjAddr: 0x2688, symBinAddr: 0x100004838, symSize: 0x28 }
  - { offset: 0xD94A, size: 0x8, addend: 0x0, symName: __ZNSt3__117__compressed_pairImNS_19__map_value_compareINS_12basic_stringIcNS_11char_traitsIcEENS_9allocatorIcEEEENS_12__value_typeIS7_iEENS_4lessIS7_EELb1EEEE5firstB8ne180100Ev, symObjAddr: 0x26B0, symBinAddr: 0x100004860, symSize: 0x24 }
  - { offset: 0xD96F, size: 0x8, addend: 0x0, symName: __ZNSt3__122__compressed_pair_elemImLi0ELb0EE5__getB8ne180100Ev, symObjAddr: 0x26D4, symBinAddr: 0x100004884, symSize: 0x14 }
  - { offset: 0xD999, size: 0x8, addend: 0x0, symName: __ZNSt3__119__to_address_helperINS_16reverse_iteratorIPNS_3mapINS_12basic_stringIcNS_11char_traitsIcEENS_9allocatorIcEEEEiNS_4lessIS8_EENS6_INS_4pairIKS8_iEEEEEEEEvE6__callB8ne180100ERKSH_, symObjAddr: 0x26E8, symBinAddr: 0x100004898, symSize: 0x38 }
  - { offset: 0xD9BC, size: 0x8, addend: 0x0, symName: __ZNKSt3__116reverse_iteratorIPNS_3mapINS_12basic_stringIcNS_11char_traitsIcEENS_9allocatorIcEEEEiNS_4lessIS7_EENS5_INS_4pairIKS7_iEEEEEEEptB8ne180100Ev, symObjAddr: 0x2720, symBinAddr: 0x1000048D0, symSize: 0x24 }
  - { offset: 0xD9E0, size: 0x8, addend: 0x0, symName: __ZNSt3__128__exception_guard_exceptionsINS_29_AllocatorDestroyRangeReverseINS_9allocatorINS_3mapINS_12basic_stringIcNS_11char_traitsIcEENS2_IcEEEEiNS_4lessIS8_EENS2_INS_4pairIKS8_iEEEEEEEENS_16reverse_iteratorIPSF_EEEEED2B8ne180100Ev, symObjAddr: 0x2744, symBinAddr: 0x1000048F4, symSize: 0x50 }
  - { offset: 0xDA09, size: 0x8, addend: 0x0, symName: __ZNKSt3__129_AllocatorDestroyRangeReverseINS_9allocatorINS_3mapINS_12basic_stringIcNS_11char_traitsIcEENS1_IcEEEEiNS_4lessIS7_EENS1_INS_4pairIKS7_iEEEEEEEENS_16reverse_iteratorIPSE_EEEclB8ne180100Ev, symObjAddr: 0x2794, symBinAddr: 0x100004944, symSize: 0xB4 }
  - { offset: 0xDA2E, size: 0x8, addend: 0x0, symName: __ZNSt3__116reverse_iteratorINS0_IPNS_3mapINS_12basic_stringIcNS_11char_traitsIcEENS_9allocatorIcEEEEiNS_4lessIS7_EENS5_INS_4pairIKS7_iEEEEEEEEEC1B8ne180100ESG_, symObjAddr: 0x28B8, symBinAddr: 0x100004A68, symSize: 0x3C }
  - { offset: 0xDA65, size: 0x8, addend: 0x0, symName: __ZNSt3__116allocator_traitsINS_9allocatorINS_3mapINS_12basic_stringIcNS_11char_traitsIcEENS1_IcEEEEiNS_4lessIS7_EENS1_INS_4pairIKS7_iEEEEEEEEE7destroyB8ne180100ISE_vEEvRSF_PT_, symObjAddr: 0x2954, symBinAddr: 0x100004B04, symSize: 0x2C }
  - { offset: 0xDAA2, size: 0x8, addend: 0x0, symName: __ZNSt3__116reverse_iteratorINS0_IPNS_3mapINS_12basic_stringIcNS_11char_traitsIcEENS_9allocatorIcEEEEiNS_4lessIS7_EENS5_INS_4pairIKS7_iEEEEEEEEEppB8ne180100Ev, symObjAddr: 0x29A4, symBinAddr: 0x100004B54, symSize: 0x30 }
  - { offset: 0xDAC7, size: 0x8, addend: 0x0, symName: __ZNKSt3__116reverse_iteratorINS0_IPNS_3mapINS_12basic_stringIcNS_11char_traitsIcEENS_9allocatorIcEEEEiNS_4lessIS7_EENS5_INS_4pairIKS7_iEEEEEEEEE4baseB8ne180100Ev, symObjAddr: 0x29D4, symBinAddr: 0x100004B84, symSize: 0x24 }
  - { offset: 0xDAEC, size: 0x8, addend: 0x0, symName: __ZNSt3__19allocatorINS_3mapINS_12basic_stringIcNS_11char_traitsIcEENS0_IcEEEEiNS_4lessIS6_EENS0_INS_4pairIKS6_iEEEEEEE7destroyB8ne180100EPSD_, symObjAddr: 0x29F8, symBinAddr: 0x100004BA8, symSize: 0x28 }
  - { offset: 0xDB1E, size: 0x8, addend: 0x0, symName: __ZNSt3__13mapINS_12basic_stringIcNS_11char_traitsIcEENS_9allocatorIcEEEEiNS_4lessIS6_EENS4_INS_4pairIKS6_iEEEEED1B8ne180100Ev, symObjAddr: 0x2A20, symBinAddr: 0x100004BD0, symSize: 0x2C }
  - { offset: 0xDB46, size: 0x8, addend: 0x0, symName: __ZNSt3__13mapINS_12basic_stringIcNS_11char_traitsIcEENS_9allocatorIcEEEEiNS_4lessIS6_EENS4_INS_4pairIKS6_iEEEEED2B8ne180100Ev, symObjAddr: 0x2A4C, symBinAddr: 0x100004BFC, symSize: 0x2C }
  - { offset: 0xDB6F, size: 0x8, addend: 0x0, symName: __ZNSt3__16__treeINS_12__value_typeINS_12basic_stringIcNS_11char_traitsIcEENS_9allocatorIcEEEEiEENS_19__map_value_compareIS7_S8_NS_4lessIS7_EELb1EEENS5_IS8_EEED1Ev, symObjAddr: 0x2A78, symBinAddr: 0x100004C28, symSize: 0x2C }
  - { offset: 0xDB9A, size: 0x8, addend: 0x0, symName: __ZNSt3__16__treeINS_12__value_typeINS_12basic_stringIcNS_11char_traitsIcEENS_9allocatorIcEEEEiEENS_19__map_value_compareIS7_S8_NS_4lessIS7_EELb1EEENS5_IS8_EEED2Ev, symObjAddr: 0x2AA4, symBinAddr: 0x100004C54, symSize: 0x38 }
  - { offset: 0xDBC4, size: 0x8, addend: 0x0, symName: __ZNSt3__16__treeINS_12__value_typeINS_12basic_stringIcNS_11char_traitsIcEENS_9allocatorIcEEEEiEENS_19__map_value_compareIS7_S8_NS_4lessIS7_EELb1EEENS5_IS8_EEE7destroyEPNS_11__tree_nodeIS8_PvEE, symObjAddr: 0x2ADC, symBinAddr: 0x100004C8C, symSize: 0xAC }
  - { offset: 0xDC0F, size: 0x8, addend: 0x0, symName: __ZNKSt3__16__treeINS_12__value_typeINS_12basic_stringIcNS_11char_traitsIcEENS_9allocatorIcEEEEiEENS_19__map_value_compareIS7_S8_NS_4lessIS7_EELb1EEENS5_IS8_EEE6__rootB8ne180100Ev, symObjAddr: 0x2B88, symBinAddr: 0x100004D38, symSize: 0x28 }
  - { offset: 0xDC34, size: 0x8, addend: 0x0, symName: __ZNSt3__16__treeINS_12__value_typeINS_12basic_stringIcNS_11char_traitsIcEENS_9allocatorIcEEEEiEENS_19__map_value_compareIS7_S8_NS_4lessIS7_EELb1EEENS5_IS8_EEE12__node_allocB8ne180100Ev, symObjAddr: 0x2BB0, symBinAddr: 0x100004D60, symSize: 0x28 }
  - { offset: 0xDC5E, size: 0x8, addend: 0x0, symName: __ZNSt3__116allocator_traitsINS_9allocatorINS_11__tree_nodeINS_12__value_typeINS_12basic_stringIcNS_11char_traitsIcEENS1_IcEEEEiEEPvEEEEE7destroyB8ne180100INS_4pairIKS8_iEEvvEEvRSC_PT_, symObjAddr: 0x2BD8, symBinAddr: 0x100004D88, symSize: 0x28 }
  - { offset: 0xDC99, size: 0x8, addend: 0x0, symName: __ZNSt3__122__tree_key_value_typesINS_12__value_typeINS_12basic_stringIcNS_11char_traitsIcEENS_9allocatorIcEEEEiEEE9__get_ptrB8ne180100ERS8_, symObjAddr: 0x2C00, symBinAddr: 0x100004DB0, symSize: 0x24 }
  - { offset: 0xDCBD, size: 0x8, addend: 0x0, symName: __ZNSt3__116allocator_traitsINS_9allocatorINS_11__tree_nodeINS_12__value_typeINS_12basic_stringIcNS_11char_traitsIcEENS1_IcEEEEiEEPvEEEEE10deallocateB8ne180100ERSC_PSB_m, symObjAddr: 0x2C24, symBinAddr: 0x100004DD4, symSize: 0x34 }
  - { offset: 0xDCFF, size: 0x8, addend: 0x0, symName: __ZNSt3__117__compressed_pairINS_15__tree_end_nodeIPNS_16__tree_node_baseIPvEEEENS_9allocatorINS_11__tree_nodeINS_12__value_typeINS_12basic_stringIcNS_11char_traitsIcEENS7_IcEEEEiEES3_EEEEE6secondB8ne180100Ev, symObjAddr: 0x2C58, symBinAddr: 0x100004E08, symSize: 0x24 }
  - { offset: 0xDD24, size: 0x8, addend: 0x0, symName: __ZNSt3__122__compressed_pair_elemINS_9allocatorINS_11__tree_nodeINS_12__value_typeINS_12basic_stringIcNS_11char_traitsIcEENS1_IcEEEEiEEPvEEEELi1ELb1EE5__getB8ne180100Ev, symObjAddr: 0x2C7C, symBinAddr: 0x100004E2C, symSize: 0x14 }
  - { offset: 0xDD49, size: 0x8, addend: 0x0, symName: __ZNSt3__14pairIKNS_12basic_stringIcNS_11char_traitsIcEENS_9allocatorIcEEEEiED1Ev, symObjAddr: 0x2CB4, symBinAddr: 0x100004E64, symSize: 0x2C }
  - { offset: 0xDD74, size: 0x8, addend: 0x0, symName: __ZNSt3__14pairIKNS_12basic_stringIcNS_11char_traitsIcEENS_9allocatorIcEEEEiED2Ev, symObjAddr: 0x2CE0, symBinAddr: 0x100004E90, symSize: 0x2C }
  - { offset: 0xDD9F, size: 0x8, addend: 0x0, symName: __ZNSt3__112__value_typeINS_12basic_stringIcNS_11char_traitsIcEENS_9allocatorIcEEEEiE11__get_valueB8ne180100Ev, symObjAddr: 0x2D0C, symBinAddr: 0x100004EBC, symSize: 0x14 }
  - { offset: 0xDDC4, size: 0x8, addend: 0x0, symName: __ZNSt3__19allocatorINS_11__tree_nodeINS_12__value_typeINS_12basic_stringIcNS_11char_traitsIcEENS0_IcEEEEiEEPvEEE10deallocateB8ne180100EPSA_m, symObjAddr: 0x2D20, symBinAddr: 0x100004ED0, symSize: 0x40 }
  - { offset: 0xDE05, size: 0x8, addend: 0x0, symName: __ZNKSt3__16__treeINS_12__value_typeINS_12basic_stringIcNS_11char_traitsIcEENS_9allocatorIcEEEEiEENS_19__map_value_compareIS7_S8_NS_4lessIS7_EELb1EEENS5_IS8_EEE10__end_nodeB8ne180100Ev, symObjAddr: 0x2DDC, symBinAddr: 0x100004F8C, symSize: 0x2C }
  - { offset: 0xDE2A, size: 0x8, addend: 0x0, symName: __ZNKSt3__117__compressed_pairINS_15__tree_end_nodeIPNS_16__tree_node_baseIPvEEEENS_9allocatorINS_11__tree_nodeINS_12__value_typeINS_12basic_stringIcNS_11char_traitsIcEENS7_IcEEEEiEES3_EEEEE5firstB8ne180100Ev, symObjAddr: 0x2E08, symBinAddr: 0x100004FB8, symSize: 0x24 }
  - { offset: 0xDE4F, size: 0x8, addend: 0x0, symName: __ZNKSt3__122__compressed_pair_elemINS_15__tree_end_nodeIPNS_16__tree_node_baseIPvEEEELi0ELb0EE5__getB8ne180100Ev, symObjAddr: 0x2E2C, symBinAddr: 0x100004FDC, symSize: 0x14 }
  - { offset: 0xDE79, size: 0x8, addend: 0x0, symName: __ZNSt3__119__to_address_helperINS_16reverse_iteratorINS1_IPNS_3mapINS_12basic_stringIcNS_11char_traitsIcEENS_9allocatorIcEEEEiNS_4lessIS8_EENS6_INS_4pairIKS8_iEEEEEEEEEEvE6__callB8ne180100ERKSI_, symObjAddr: 0x2E40, symBinAddr: 0x100004FF0, symSize: 0x38 }
  - { offset: 0xDE9C, size: 0x8, addend: 0x0, symName: __ZNKSt3__116reverse_iteratorINS0_IPNS_3mapINS_12basic_stringIcNS_11char_traitsIcEENS_9allocatorIcEEEEiNS_4lessIS7_EENS5_INS_4pairIKS7_iEEEEEEEEEptB8ne180100Ev, symObjAddr: 0x2E78, symBinAddr: 0x100005028, symSize: 0x24 }
  - { offset: 0xDEC1, size: 0x8, addend: 0x0, symName: __ZNKSt3__116reverse_iteratorINS0_IPNS_3mapINS_12basic_stringIcNS_11char_traitsIcEENS_9allocatorIcEEEEiNS_4lessIS7_EENS5_INS_4pairIKS7_iEEEEEEEEEdeB8ne180100Ev, symObjAddr: 0x2E9C, symBinAddr: 0x10000504C, symSize: 0x34 }
  - { offset: 0xDEF4, size: 0x8, addend: 0x0, symName: __ZNSt3__116reverse_iteratorIPNS_3mapINS_12basic_stringIcNS_11char_traitsIcEENS_9allocatorIcEEEEiNS_4lessIS7_EENS5_INS_4pairIKS7_iEEEEEEEmmB8ne180100Ev, symObjAddr: 0x2ED0, symBinAddr: 0x100005080, symSize: 0x20 }
  - { offset: 0xDF19, size: 0x8, addend: 0x0, symName: __ZNSt3__116reverse_iteratorINS0_IPNS_3mapINS_12basic_stringIcNS_11char_traitsIcEENS_9allocatorIcEEEEiNS_4lessIS7_EENS5_INS_4pairIKS7_iEEEEEEEEEC2B8ne180100ESG_, symObjAddr: 0x2EF0, symBinAddr: 0x1000050A0, symSize: 0x2C }
  - { offset: 0xDF50, size: 0x8, addend: 0x0, symName: __ZNSt3__116reverse_iteratorIPNS_3mapINS_12basic_stringIcNS_11char_traitsIcEENS_9allocatorIcEEEEiNS_4lessIS7_EENS5_INS_4pairIKS7_iEEEEEEEC2B8ne180100ESF_, symObjAddr: 0x2F1C, symBinAddr: 0x1000050CC, symSize: 0x28 }
  - { offset: 0xDF87, size: 0x8, addend: 0x0, symName: __ZNSt3__114__split_bufferINS_3mapINS_12basic_stringIcNS_11char_traitsIcEENS_9allocatorIcEEEEiNS_4lessIS7_EENS5_INS_4pairIKS7_iEEEEEERNS5_ISE_EEED2Ev, symObjAddr: 0x2F44, symBinAddr: 0x1000050F4, symSize: 0x8C }
  - { offset: 0xDFB2, size: 0x8, addend: 0x0, symName: __ZNSt3__114__split_bufferINS_3mapINS_12basic_stringIcNS_11char_traitsIcEENS_9allocatorIcEEEEiNS_4lessIS7_EENS5_INS_4pairIKS7_iEEEEEERNS5_ISE_EEE5clearB8ne180100Ev, symObjAddr: 0x2FD0, symBinAddr: 0x100005180, symSize: 0x28 }
  - { offset: 0xDFD7, size: 0x8, addend: 0x0, symName: __ZNSt3__116allocator_traitsINS_9allocatorINS_3mapINS_12basic_stringIcNS_11char_traitsIcEENS1_IcEEEEiNS_4lessIS7_EENS1_INS_4pairIKS7_iEEEEEEEEE10deallocateB8ne180100ERSF_PSE_m, symObjAddr: 0x2FF8, symBinAddr: 0x1000051A8, symSize: 0x34 }
  - { offset: 0xE019, size: 0x8, addend: 0x0, symName: __ZNKSt3__114__split_bufferINS_3mapINS_12basic_stringIcNS_11char_traitsIcEENS_9allocatorIcEEEEiNS_4lessIS7_EENS5_INS_4pairIKS7_iEEEEEERNS5_ISE_EEE8capacityB8ne180100Ev, symObjAddr: 0x302C, symBinAddr: 0x1000051DC, symSize: 0x40 }
  - { offset: 0xE03E, size: 0x8, addend: 0x0, symName: __ZNSt3__114__split_bufferINS_3mapINS_12basic_stringIcNS_11char_traitsIcEENS_9allocatorIcEEEEiNS_4lessIS7_EENS5_INS_4pairIKS7_iEEEEEERNS5_ISE_EEE17__destruct_at_endB8ne180100EPSE_, symObjAddr: 0x306C, symBinAddr: 0x10000521C, symSize: 0x2C }
  - { offset: 0xE070, size: 0x8, addend: 0x0, symName: __ZNSt3__114__split_bufferINS_3mapINS_12basic_stringIcNS_11char_traitsIcEENS_9allocatorIcEEEEiNS_4lessIS7_EENS5_INS_4pairIKS7_iEEEEEERNS5_ISE_EEE17__destruct_at_endB8ne180100EPSE_NS_17integral_constantIbLb0EEE, symObjAddr: 0x3098, symBinAddr: 0x100005248, symSize: 0x80 }
  - { offset: 0xE0B0, size: 0x8, addend: 0x0, symName: __ZNSt3__19allocatorINS_3mapINS_12basic_stringIcNS_11char_traitsIcEENS0_IcEEEEiNS_4lessIS6_EENS0_INS_4pairIKS6_iEEEEEEE10deallocateB8ne180100EPSD_m, symObjAddr: 0x3118, symBinAddr: 0x1000052C8, symSize: 0x44 }
  - { offset: 0xE0F1, size: 0x8, addend: 0x0, symName: __ZNKSt3__114__split_bufferINS_3mapINS_12basic_stringIcNS_11char_traitsIcEENS_9allocatorIcEEEEiNS_4lessIS7_EENS5_INS_4pairIKS7_iEEEEEERNS5_ISE_EEE9__end_capB8ne180100Ev, symObjAddr: 0x315C, symBinAddr: 0x10000530C, symSize: 0x28 }
  - { offset: 0xE116, size: 0x8, addend: 0x0, symName: __ZNKSt3__117__compressed_pairIPNS_3mapINS_12basic_stringIcNS_11char_traitsIcEENS_9allocatorIcEEEEiNS_4lessIS7_EENS5_INS_4pairIKS7_iEEEEEERNS5_ISE_EEE5firstB8ne180100Ev, symObjAddr: 0x3184, symBinAddr: 0x100005334, symSize: 0x24 }
  - { offset: 0xE13B, size: 0x8, addend: 0x0, symName: __ZNSt3__16vectorINS_3mapINS_12basic_stringIcNS_11char_traitsIcEENS_9allocatorIcEEEEiNS_4lessIS7_EENS5_INS_4pairIKS7_iEEEEEENS5_ISE_EEE22__base_destruct_at_endB8ne180100EPSE_, symObjAddr: 0x31A8, symBinAddr: 0x100005358, symSize: 0x8C }
  - { offset: 0xE17E, size: 0x8, addend: 0x0, symName: __ZNKSt3__16vectorINS_3mapINS_12basic_stringIcNS_11char_traitsIcEENS_9allocatorIcEEEEiNS_4lessIS7_EENS5_INS_4pairIKS7_iEEEEEENS5_ISE_EEE17__annotate_shrinkB8ne180100Em, symObjAddr: 0x3234, symBinAddr: 0x1000053E4, symSize: 0x14 }
  - { offset: 0xE1B1, size: 0x8, addend: 0x0, symName: __ZNSt3__16vectorINS_3mapINS_12basic_stringIcNS_11char_traitsIcEENS_9allocatorIcEEEEiNS_4lessIS7_EENS5_INS_4pairIKS7_iEEEEEENS5_ISE_EEED2B8ne180100Ev, symObjAddr: 0x3248, symBinAddr: 0x1000053F8, symSize: 0x44 }
  - { offset: 0xE1D9, size: 0x8, addend: 0x0, symName: __ZNSt3__16vectorINS_3mapINS_12basic_stringIcNS_11char_traitsIcEENS_9allocatorIcEEEEiNS_4lessIS7_EENS5_INS_4pairIKS7_iEEEEEENS5_ISE_EEE16__destroy_vectorC1B8ne180100ERSG_, symObjAddr: 0x328C, symBinAddr: 0x10000543C, symSize: 0x34 }
  - { offset: 0xE211, size: 0x8, addend: 0x0, symName: __ZNSt3__16vectorINS_3mapINS_12basic_stringIcNS_11char_traitsIcEENS_9allocatorIcEEEEiNS_4lessIS7_EENS5_INS_4pairIKS7_iEEEEEENS5_ISE_EEE16__destroy_vectorclB8ne180100Ev, symObjAddr: 0x32C0, symBinAddr: 0x100005470, symSize: 0x90 }
  - { offset: 0xE236, size: 0x8, addend: 0x0, symName: __ZNSt3__16vectorINS_3mapINS_12basic_stringIcNS_11char_traitsIcEENS_9allocatorIcEEEEiNS_4lessIS7_EENS5_INS_4pairIKS7_iEEEEEENS5_ISE_EEE16__destroy_vectorC2B8ne180100ERSG_, symObjAddr: 0x3350, symBinAddr: 0x100005500, symSize: 0x20 }
  - { offset: 0xE26E, size: 0x8, addend: 0x0, symName: __ZNSt3__16vectorINS_3mapINS_12basic_stringIcNS_11char_traitsIcEENS_9allocatorIcEEEEiNS_4lessIS7_EENS5_INS_4pairIKS7_iEEEEEENS5_ISE_EEE7__clearB8ne180100Ev, symObjAddr: 0x3370, symBinAddr: 0x100005520, symSize: 0x28 }
  - { offset: 0xE293, size: 0x8, addend: 0x0, symName: __ZN9HashTableINSt3__112basic_stringIcNS0_11char_traitsIcEENS0_9allocatorIcEEEEiED2Ev, symObjAddr: 0x3398, symBinAddr: 0x100005548, symSize: 0x2C }
  - { offset: 0xE2BC, size: 0x8, addend: 0x0, symName: __ZNKSt3__19basic_iosIcNS_11char_traitsIcEEE5widenB8ne180100Ec, symObjAddr: 0x33C4, symBinAddr: 0x100005574, symSize: 0x84 }
  - { offset: 0xE32F, size: 0x8, addend: 0x0, symName: __ZNKSt3__15ctypeIcE5widenB8ne180100Ec, symObjAddr: 0x3474, symBinAddr: 0x100005624, symSize: 0x38 }
  - { offset: 0xE363, size: 0x8, addend: 0x0, symName: __ZNKSt3__124uniform_int_distributionIiE10param_type1bB8ne180100Ev, symObjAddr: 0x3634, symBinAddr: 0x1000057E4, symSize: 0x18 }
  - { offset: 0xE388, size: 0x8, addend: 0x0, symName: __ZNKSt3__124uniform_int_distributionIiE10param_type1aB8ne180100Ev, symObjAddr: 0x364C, symBinAddr: 0x1000057FC, symSize: 0x18 }
  - { offset: 0xE3AD, size: 0x8, addend: 0x0, symName: __ZNSt3__125__independent_bits_engineINS_26linear_congruential_engineIjLj48271ELj0ELj2147483647EEEjEC1ERS2_m, symObjAddr: 0x3664, symBinAddr: 0x100005814, symSize: 0x3C }
  - { offset: 0xE3F3, size: 0x8, addend: 0x0, symName: __ZNSt3__125__independent_bits_engineINS_26linear_congruential_engineIjLj48271ELj0ELj2147483647EEEjEclB8ne180100Ev, symObjAddr: 0x36A0, symBinAddr: 0x100005850, symSize: 0x24 }
  - { offset: 0xE418, size: 0x8, addend: 0x0, symName: __ZNSt3__114numeric_limitsIjE3maxB8ne180100Ev, symObjAddr: 0x3718, symBinAddr: 0x1000058C8, symSize: 0x14 }
  - { offset: 0xE42C, size: 0x8, addend: 0x0, symName: __ZNSt3__125__independent_bits_engineINS_26linear_congruential_engineIjLj48271ELj0ELj2147483647EEEjEC2ERS2_m, symObjAddr: 0x372C, symBinAddr: 0x1000058DC, symSize: 0x274 }
  - { offset: 0xE471, size: 0x8, addend: 0x0, symName: __ZNSt3__125__independent_bits_engineINS_26linear_congruential_engineIjLj48271ELj0ELj2147483647EEEjE6__evalENS_17integral_constantIbLb1EEE, symObjAddr: 0x39A0, symBinAddr: 0x100005B50, symSize: 0x1E8 }
  - { offset: 0xE52E, size: 0x8, addend: 0x0, symName: __ZNSt3__126linear_congruential_engineIjLj48271ELj0ELj2147483647EEclB8ne180100Ev, symObjAddr: 0x3B88, symBinAddr: 0x100005D38, symSize: 0x34 }
  - { offset: 0xE553, size: 0x8, addend: 0x0, symName: __ZNSt3__126linear_congruential_engineIjLj48271ELj0ELj2147483647EE3minB8ne180100Ev, symObjAddr: 0x3BBC, symBinAddr: 0x100005D6C, symSize: 0x8 }
  - { offset: 0xE567, size: 0x8, addend: 0x0, symName: __ZNSt3__18__lce_taILy48271ELy0ELy2147483647ELy4294967295ELb1EE4nextB8ne180100Ej, symObjAddr: 0x3BC4, symBinAddr: 0x100005D74, symSize: 0x88 }
  - { offset: 0xE5DE, size: 0x8, addend: 0x0, symName: __ZNSt3__123__libcpp_numeric_limitsIjLb1EE3maxB8ne180100Ev, symObjAddr: 0x3C64, symBinAddr: 0x100005E14, symSize: 0x8 }
  - { offset: 0xE610, size: 0x8, addend: 0x0, symName: __ZNKSt3__113basic_ostreamIcNS_11char_traitsIcEEE6sentrycvbB8ne180100Ev, symObjAddr: 0x3E58, symBinAddr: 0x100006008, symSize: 0x1C }
  - { offset: 0xE634, size: 0x8, addend: 0x0, symName: __ZNSt3__119ostreambuf_iteratorIcNS_11char_traitsIcEEEC1B8ne180100ERNS_13basic_ostreamIcS2_EE, symObjAddr: 0x40B4, symBinAddr: 0x100006264, symSize: 0x34 }
  - { offset: 0xE66B, size: 0x8, addend: 0x0, symName: __ZNKSt3__18ios_base5flagsB8ne180100Ev, symObjAddr: 0x40E8, symBinAddr: 0x100006298, symSize: 0x18 }
  - { offset: 0xE691, size: 0x8, addend: 0x0, symName: __ZNKSt3__19basic_iosIcNS_11char_traitsIcEEE4fillB8ne180100Ev, symObjAddr: 0x4100, symBinAddr: 0x1000062B0, symSize: 0x64 }
  - { offset: 0xE6B8, size: 0x8, addend: 0x0, symName: __ZNKSt3__119ostreambuf_iteratorIcNS_11char_traitsIcEEE6failedB8ne180100Ev, symObjAddr: 0x4164, symBinAddr: 0x100006314, symSize: 0x24 }
  - { offset: 0xE6DD, size: 0x8, addend: 0x0, symName: __ZNSt3__19basic_iosIcNS_11char_traitsIcEEE8setstateB8ne180100Ej, symObjAddr: 0x4188, symBinAddr: 0x100006338, symSize: 0x2C }
  - { offset: 0xE711, size: 0x8, addend: 0x0, symName: __ZNKSt3__18ios_base5widthB8ne180100Ev, symObjAddr: 0x41B4, symBinAddr: 0x100006364, symSize: 0x18 }
  - { offset: 0xE738, size: 0x8, addend: 0x0, symName: __ZNSt3__115basic_streambufIcNS_11char_traitsIcEEE5sputnB8ne180100EPKcl, symObjAddr: 0x41CC, symBinAddr: 0x10000637C, symSize: 0x3C }
  - { offset: 0xE778, size: 0x8, addend: 0x0, symName: __ZNSt3__112basic_stringIcNS_11char_traitsIcEENS_9allocatorIcEEEC1B8ne180100Emc, symObjAddr: 0x4208, symBinAddr: 0x1000063B8, symSize: 0x3C }
  - { offset: 0xE7BF, size: 0x8, addend: 0x0, symName: __ZNKSt3__112basic_stringIcNS_11char_traitsIcEENS_9allocatorIcEEE4dataB8ne180100Ev, symObjAddr: 0x4244, symBinAddr: 0x1000063F4, symSize: 0x28 }
  - { offset: 0xE7E4, size: 0x8, addend: 0x0, symName: __ZNSt3__18ios_base5widthB8ne180100El, symObjAddr: 0x426C, symBinAddr: 0x10000641C, symSize: 0x2C }
  - { offset: 0xE828, size: 0x8, addend: 0x0, symName: __ZNSt3__112basic_stringIcNS_11char_traitsIcEENS_9allocatorIcEEEC2B8ne180100Emc, symObjAddr: 0x4298, symBinAddr: 0x100006448, symSize: 0x4C }
  - { offset: 0xE86F, size: 0x8, addend: 0x0, symName: __ZNKSt3__112basic_stringIcNS_11char_traitsIcEENS_9allocatorIcEEE13__get_pointerB8ne180100Ev, symObjAddr: 0x42F8, symBinAddr: 0x1000064A8, symSize: 0x54 }
  - { offset: 0xE894, size: 0x8, addend: 0x0, symName: __ZNKSt3__112basic_stringIcNS_11char_traitsIcEENS_9allocatorIcEEE9__is_longB8ne180100Ev, symObjAddr: 0x434C, symBinAddr: 0x1000064FC, symSize: 0x38 }
  - { offset: 0xE8B9, size: 0x8, addend: 0x0, symName: __ZNKSt3__112basic_stringIcNS_11char_traitsIcEENS_9allocatorIcEEE18__get_long_pointerB8ne180100Ev, symObjAddr: 0x4384, symBinAddr: 0x100006534, symSize: 0x28 }
  - { offset: 0xE8DE, size: 0x8, addend: 0x0, symName: __ZNKSt3__112basic_stringIcNS_11char_traitsIcEENS_9allocatorIcEEE19__get_short_pointerB8ne180100Ev, symObjAddr: 0x43AC, symBinAddr: 0x10000655C, symSize: 0x28 }
  - { offset: 0xE903, size: 0x8, addend: 0x0, symName: __ZNKSt3__117__compressed_pairINS_12basic_stringIcNS_11char_traitsIcEENS_9allocatorIcEEE5__repES5_E5firstB8ne180100Ev, symObjAddr: 0x43D4, symBinAddr: 0x100006584, symSize: 0x24 }
  - { offset: 0xE928, size: 0x8, addend: 0x0, symName: __ZNKSt3__122__compressed_pair_elemINS_12basic_stringIcNS_11char_traitsIcEENS_9allocatorIcEEE5__repELi0ELb0EE5__getB8ne180100Ev, symObjAddr: 0x43F8, symBinAddr: 0x1000065A8, symSize: 0x14 }
  - { offset: 0xE94D, size: 0x8, addend: 0x0, symName: __ZNSt3__114pointer_traitsIPKcE10pointer_toB8ne180100ERS1_, symObjAddr: 0x440C, symBinAddr: 0x1000065BC, symSize: 0x14 }
  - { offset: 0xE96F, size: 0x8, addend: 0x0, symName: __ZNSt3__119ostreambuf_iteratorIcNS_11char_traitsIcEEEC2B8ne180100ERNS_13basic_ostreamIcS2_EE, symObjAddr: 0x4420, symBinAddr: 0x1000065D0, symSize: 0x54 }
  - { offset: 0xE9A5, size: 0x8, addend: 0x0, symName: __ZNKSt3__19basic_iosIcNS_11char_traitsIcEEE5rdbufB8ne180100Ev, symObjAddr: 0x4474, symBinAddr: 0x100006624, symSize: 0x24 }
  - { offset: 0xE9CC, size: 0x8, addend: 0x0, symName: __ZNKSt3__18ios_base5rdbufB8ne180100Ev, symObjAddr: 0x4498, symBinAddr: 0x100006648, symSize: 0x18 }
  - { offset: 0xE9F1, size: 0x8, addend: 0x0, symName: __ZNSt3__111char_traitsIcE11eq_int_typeB8ne180100Eii, symObjAddr: 0x44B0, symBinAddr: 0x100006660, symSize: 0x28 }
  - { offset: 0xEA24, size: 0x8, addend: 0x0, symName: __ZNSt3__111char_traitsIcE3eofB8ne180100Ev, symObjAddr: 0x44D8, symBinAddr: 0x100006688, symSize: 0x8 }
  - { offset: 0xEA37, size: 0x8, addend: 0x0, symName: __ZNSt3__18ios_base8setstateB8ne180100Ej, symObjAddr: 0x44E0, symBinAddr: 0x100006690, symSize: 0x34 }
  - { offset: 0xEA6D, size: 0x8, addend: 0x0, symName: __ZNKSt3__112basic_stringIcNS_11char_traitsIcEENS_9allocatorIcEEE4sizeB8ne180100Ev, symObjAddr: 0x4514, symBinAddr: 0x1000066C4, symSize: 0x54 }
  - { offset: 0xEA9C, size: 0x8, addend: 0x0, symName: __ZNSt3__116allocator_traitsINS_9allocatorIcEEE37select_on_container_copy_constructionB8ne180100IS2_vvEES2_RKS2_, symObjAddr: 0x4568, symBinAddr: 0x100006718, symSize: 0x10 }
  - { offset: 0xEACB, size: 0x8, addend: 0x0, symName: __ZNKSt3__112basic_stringIcNS_11char_traitsIcEENS_9allocatorIcEEE13get_allocatorB8ne180100Ev, symObjAddr: 0x4578, symBinAddr: 0x100006728, symSize: 0x24 }
  - { offset: 0xEAEF, size: 0x8, addend: 0x0, symName: __ZNSt3__112basic_stringIcNS_11char_traitsIcEENS_9allocatorIcEEEC1B8ne180100ENS_24__uninitialized_size_tagEmRKS4_, symObjAddr: 0x459C, symBinAddr: 0x10000674C, symSize: 0x3C }
  - { offset: 0xEB42, size: 0x8, addend: 0x0, symName: __ZNSt3__112basic_stringIcNS_11char_traitsIcEENS_9allocatorIcEEE13__get_pointerB8ne180100Ev, symObjAddr: 0x45EC, symBinAddr: 0x10000679C, symSize: 0x54 }
  - { offset: 0xEB67, size: 0x8, addend: 0x0, symName: __ZNSt3__111char_traitsIcE4copyB8ne180100EPcPKcm, symObjAddr: 0x4640, symBinAddr: 0x1000067F0, symSize: 0x40 }
  - { offset: 0xEBA6, size: 0x8, addend: 0x0, symName: __ZNSt3__111char_traitsIcE6assignB8ne180100EPcmc, symObjAddr: 0x4680, symBinAddr: 0x100006830, symSize: 0x44 }
  - { offset: 0xEBE5, size: 0x8, addend: 0x0, symName: __ZNKSt3__112basic_stringIcNS_11char_traitsIcEENS_9allocatorIcEEE15__get_long_sizeB8ne180100Ev, symObjAddr: 0x46C4, symBinAddr: 0x100006874, symSize: 0x28 }
  - { offset: 0xEC0A, size: 0x8, addend: 0x0, symName: __ZNKSt3__112basic_stringIcNS_11char_traitsIcEENS_9allocatorIcEEE16__get_short_sizeB8ne180100Ev, symObjAddr: 0x46EC, symBinAddr: 0x10000689C, symSize: 0x34 }
  - { offset: 0xEC2F, size: 0x8, addend: 0x0, symName: __ZNKSt3__112basic_stringIcNS_11char_traitsIcEENS_9allocatorIcEEE7__allocB8ne180100Ev, symObjAddr: 0x4720, symBinAddr: 0x1000068D0, symSize: 0x24 }
  - { offset: 0xEC54, size: 0x8, addend: 0x0, symName: __ZNKSt3__117__compressed_pairINS_12basic_stringIcNS_11char_traitsIcEENS_9allocatorIcEEE5__repES5_E6secondB8ne180100Ev, symObjAddr: 0x4744, symBinAddr: 0x1000068F4, symSize: 0x24 }
  - { offset: 0xEC79, size: 0x8, addend: 0x0, symName: __ZNKSt3__122__compressed_pair_elemINS_9allocatorIcEELi1ELb1EE5__getB8ne180100Ev, symObjAddr: 0x4768, symBinAddr: 0x100006918, symSize: 0x14 }
  - { offset: 0xEC9D, size: 0x8, addend: 0x0, symName: __ZNSt3__112basic_stringIcNS_11char_traitsIcEENS_9allocatorIcEEEC2B8ne180100ENS_24__uninitialized_size_tagEmRKS4_, symObjAddr: 0x477C, symBinAddr: 0x10000692C, symSize: 0x11C }
  - { offset: 0xED1B, size: 0x8, addend: 0x0, symName: __ZNSt3__117__compressed_pairINS_12basic_stringIcNS_11char_traitsIcEENS_9allocatorIcEEE5__repES5_EC1B8ne180100INS_18__default_init_tagERKS5_EEOT_OT0_, symObjAddr: 0x4898, symBinAddr: 0x100006A48, symSize: 0x3C }
  - { offset: 0xED72, size: 0x8, addend: 0x0, symName: __ZNKSt3__112basic_stringIcNS_11char_traitsIcEENS_9allocatorIcEEE8max_sizeB8ne180100Ev, symObjAddr: 0x48D4, symBinAddr: 0x100006A84, symSize: 0xAC }
  - { offset: 0xEDC3, size: 0x8, addend: 0x0, symName: __ZNKSt3__112basic_stringIcNS_11char_traitsIcEENS_9allocatorIcEEE20__throw_length_errorB8ne180100Ev, symObjAddr: 0x4980, symBinAddr: 0x100006B30, symSize: 0x1C }
  - { offset: 0xEDE8, size: 0x8, addend: 0x0, symName: __ZNSt3__112basic_stringIcNS_11char_traitsIcEENS_9allocatorIcEEE13__fits_in_ssoB8ne180100Em, symObjAddr: 0x499C, symBinAddr: 0x100006B4C, symSize: 0x20 }
  - { offset: 0xEE0C, size: 0x8, addend: 0x0, symName: __ZNSt3__117__compressed_pairINS_12basic_stringIcNS_11char_traitsIcEENS_9allocatorIcEEE5__repES5_E5firstB8ne180100Ev, symObjAddr: 0x49BC, symBinAddr: 0x100006B6C, symSize: 0x24 }
  - { offset: 0xEE31, size: 0x8, addend: 0x0, symName: __ZNSt3__112basic_stringIcNS_11char_traitsIcEENS_9allocatorIcEEE16__set_short_sizeB8ne180100Em, symObjAddr: 0x49E0, symBinAddr: 0x100006B90, symSize: 0x78 }
  - { offset: 0xEE65, size: 0x8, addend: 0x0, symName: __ZNSt3__112basic_stringIcNS_11char_traitsIcEENS_9allocatorIcEEE11__recommendB8ne180100Em, symObjAddr: 0x4A58, symBinAddr: 0x100006C08, symSize: 0x84 }
  - { offset: 0xEE98, size: 0x8, addend: 0x0, symName: __ZNSt3__116allocator_traitsINS_9allocatorIcEEE8allocateB8ne180100ERS2_m, symObjAddr: 0x4ADC, symBinAddr: 0x100006C8C, symSize: 0x2C }
  - { offset: 0xEECB, size: 0x8, addend: 0x0, symName: __ZNSt3__112basic_stringIcNS_11char_traitsIcEENS_9allocatorIcEEE7__allocB8ne180100Ev, symObjAddr: 0x4B08, symBinAddr: 0x100006CB8, symSize: 0x24 }
  - { offset: 0xEEF0, size: 0x8, addend: 0x0, symName: __ZNSt3__112basic_stringIcNS_11char_traitsIcEENS_9allocatorIcEEE16__begin_lifetimeB8ne180100EPcm, symObjAddr: 0x4B2C, symBinAddr: 0x100006CDC, symSize: 0x14 }
  - { offset: 0xEF23, size: 0x8, addend: 0x0, symName: __ZNSt3__112basic_stringIcNS_11char_traitsIcEENS_9allocatorIcEEE14__set_long_capB8ne180100Em, symObjAddr: 0x4B40, symBinAddr: 0x100006CF0, symSize: 0x70 }
  - { offset: 0xEF57, size: 0x8, addend: 0x0, symName: __ZNSt3__112basic_stringIcNS_11char_traitsIcEENS_9allocatorIcEEE18__set_long_pointerB8ne180100EPc, symObjAddr: 0x4BB0, symBinAddr: 0x100006D60, symSize: 0x38 }
  - { offset: 0xEF8B, size: 0x8, addend: 0x0, symName: __ZNSt3__112basic_stringIcNS_11char_traitsIcEENS_9allocatorIcEEE15__set_long_sizeB8ne180100Em, symObjAddr: 0x4BE8, symBinAddr: 0x100006D98, symSize: 0x38 }
  - { offset: 0xEFBF, size: 0x8, addend: 0x0, symName: __ZNKSt3__112basic_stringIcNS_11char_traitsIcEENS_9allocatorIcEEE14__annotate_newB8ne180100Em, symObjAddr: 0x4C20, symBinAddr: 0x100006DD0, symSize: 0x14 }
  - { offset: 0xEFF2, size: 0x8, addend: 0x0, symName: __ZNSt3__117__compressed_pairINS_12basic_stringIcNS_11char_traitsIcEENS_9allocatorIcEEE5__repES5_EC2B8ne180100INS_18__default_init_tagERKS5_EEOT_OT0_, symObjAddr: 0x4C34, symBinAddr: 0x100006DE4, symSize: 0x40 }
  - { offset: 0xF049, size: 0x8, addend: 0x0, symName: __ZNSt3__122__compressed_pair_elemINS_9allocatorIcEELi1ELb1EEC2B8ne180100IRKS2_vEEOT_, symObjAddr: 0x4C74, symBinAddr: 0x100006E24, symSize: 0x18 }
  - { offset: 0xF08A, size: 0x8, addend: 0x0, symName: __ZNSt3__116allocator_traitsINS_9allocatorIcEEE8max_sizeB8ne180100IS2_vEEmRKS2_, symObjAddr: 0x4C8C, symBinAddr: 0x100006E3C, symSize: 0x24 }
  - { offset: 0xF0B8, size: 0x8, addend: 0x0, symName: __ZNSt3__114numeric_limitsImE3maxB8ne180100Ev, symObjAddr: 0x4CB0, symBinAddr: 0x100006E60, symSize: 0x14 }
  - { offset: 0xF0CC, size: 0x8, addend: 0x0, symName: __ZNKSt3__19allocatorIcE8max_sizeB8ne180100Ev, symObjAddr: 0x4CC4, symBinAddr: 0x100006E74, symSize: 0x14 }
  - { offset: 0xF0F1, size: 0x8, addend: 0x0, symName: __ZNSt3__123__libcpp_numeric_limitsImLb1EE3maxB8ne180100Ev, symObjAddr: 0x4CD8, symBinAddr: 0x100006E88, symSize: 0x8 }
  - { offset: 0xF105, size: 0x8, addend: 0x0, symName: __ZNSt3__122__compressed_pair_elemINS_12basic_stringIcNS_11char_traitsIcEENS_9allocatorIcEEE5__repELi0ELb0EE5__getB8ne180100Ev, symObjAddr: 0x4CE0, symBinAddr: 0x100006E90, symSize: 0x14 }
  - { offset: 0xF12A, size: 0x8, addend: 0x0, symName: __ZNSt3__112basic_stringIcNS_11char_traitsIcEENS_9allocatorIcEEE10__align_itB8ne180100ILm8EEEmm, symObjAddr: 0x4CF4, symBinAddr: 0x100006EA4, symSize: 0x1C }
  - { offset: 0xF158, size: 0x8, addend: 0x0, symName: __ZNSt3__19allocatorIcE8allocateB8ne180100Em, symObjAddr: 0x4D10, symBinAddr: 0x100006EC0, symSize: 0x58 }
  - { offset: 0xF18B, size: 0x8, addend: 0x0, symName: __ZNSt3__117__compressed_pairINS_12basic_stringIcNS_11char_traitsIcEENS_9allocatorIcEEE5__repES5_E6secondB8ne180100Ev, symObjAddr: 0x4D68, symBinAddr: 0x100006F18, symSize: 0x24 }
  - { offset: 0xF1B0, size: 0x8, addend: 0x0, symName: __ZNSt3__122__compressed_pair_elemINS_9allocatorIcEELi1ELb1EE5__getB8ne180100Ev, symObjAddr: 0x4D8C, symBinAddr: 0x100006F3C, symSize: 0x14 }
  - { offset: 0xF1D5, size: 0x8, addend: 0x0, symName: __ZNSt3__112basic_stringIcNS_11char_traitsIcEENS_9allocatorIcEEE18__get_long_pointerB8ne180100Ev, symObjAddr: 0x4DA0, symBinAddr: 0x100006F50, symSize: 0x28 }
  - { offset: 0xF1FA, size: 0x8, addend: 0x0, symName: __ZNSt3__112basic_stringIcNS_11char_traitsIcEENS_9allocatorIcEEE19__get_short_pointerB8ne180100Ev, symObjAddr: 0x4DC8, symBinAddr: 0x100006F78, symSize: 0x28 }
  - { offset: 0xF21F, size: 0x8, addend: 0x0, symName: __ZNSt3__114pointer_traitsIPcE10pointer_toB8ne180100ERc, symObjAddr: 0x4DF0, symBinAddr: 0x100006FA0, symSize: 0x14 }
  - { offset: 0xF265, size: 0x8, addend: 0x0, symName: __ZNKSt3__114__copy_trivialclB8ne180100IKccLi0EEENS_4pairIPT_PT0_EES5_S5_S7_, symObjAddr: 0x5024, symBinAddr: 0x1000071D4, symSize: 0x48 }
  - { offset: 0xF2E9, size: 0x8, addend: 0x0, symName: __ZNSt3__14pairIPKcS2_EC1B8ne180100IS2_S2_Li0EEEOT_OT0_, symObjAddr: 0x518C, symBinAddr: 0x10000733C, symSize: 0x3C }
  - { offset: 0xF346, size: 0x8, addend: 0x0, symName: __ZNSt3__14pairIPKcS2_EC2B8ne180100IS2_S2_Li0EEEOT_OT0_, symObjAddr: 0x51C8, symBinAddr: 0x100007378, symSize: 0x34 }
  - { offset: 0xF3A3, size: 0x8, addend: 0x0, symName: __ZNSt3__118__unwrap_iter_implIPKcLb1EE8__unwrapB8ne180100ES2_, symObjAddr: 0x51FC, symBinAddr: 0x1000073AC, symSize: 0x24 }
  - { offset: 0xF3CF, size: 0x8, addend: 0x0, symName: __ZNSt3__14pairIPKcPcEC1B8ne180100IRS2_S3_Li0EEEOT_OT0_, symObjAddr: 0x5334, symBinAddr: 0x1000074E4, symSize: 0x3C }
  - { offset: 0xF42C, size: 0x8, addend: 0x0, symName: __ZNSt3__14pairIPKcPcEC2B8ne180100IRS2_S3_Li0EEEOT_OT0_, symObjAddr: 0x5370, symBinAddr: 0x100007520, symSize: 0x34 }
  - { offset: 0xF489, size: 0x8, addend: 0x0, symName: __ZNSt3__118__unwrap_iter_implIPcLb1EE8__unwrapB8ne180100ES1_, symObjAddr: 0x53A4, symBinAddr: 0x100007554, symSize: 0x24 }
  - { offset: 0xF4AB, size: 0x8, addend: 0x0, symName: __ZNSt3__14pairIPKcPcEC1B8ne180100IS2_S3_Li0EEEOT_OT0_, symObjAddr: 0x53C8, symBinAddr: 0x100007578, symSize: 0x3C }
  - { offset: 0xF508, size: 0x8, addend: 0x0, symName: __ZNSt3__14pairIPKcPcEC2B8ne180100IS2_S3_Li0EEEOT_OT0_, symObjAddr: 0x5404, symBinAddr: 0x1000075B4, symSize: 0x34 }
  - { offset: 0xF565, size: 0x8, addend: 0x0, symName: __ZNSt3__118__unwrap_iter_implIPKcLb1EE8__rewrapB8ne180100ES2_S2_, symObjAddr: 0x5474, symBinAddr: 0x100007624, symSize: 0x48 }
  - { offset: 0xF596, size: 0x8, addend: 0x0, symName: __ZNSt3__118__unwrap_iter_implIPcLb1EE8__rewrapB8ne180100ES1_S1_, symObjAddr: 0x54BC, symBinAddr: 0x10000766C, symSize: 0x48 }
...
